
024_7_4_SLAVE_USART.elf:     file format elf32-littlearm

Sections:
Idx Name          Size      VMA       LMA       File off  Algn
  0 .isr_vector   00000188  08000000  08000000  00010000  2**0
                  CONTENTS, ALLOC, LOAD, READONLY, DATA
  1 .text         000059c4  08000190  08000190  00010190  2**4
                  CONTENTS, ALLOC, LOAD, READONLY, CODE
  2 .rodata       0000045c  08005b58  08005b58  00015b58  2**3
                  CONTENTS, ALLOC, LOAD, READONLY, DATA
  3 .ARM.extab    00000000  08005fb4  08005fb4  000201dc  2**0
                  CONTENTS
  4 .ARM          00000008  08005fb4  08005fb4  00015fb4  2**2
                  CONTENTS, ALLOC, LOAD, READONLY, DATA
  5 .preinit_array 00000000  08005fbc  08005fbc  000201dc  2**0
                  CONTENTS, ALLOC, LOAD, DATA
  6 .init_array   00000004  08005fbc  08005fbc  00015fbc  2**2
                  CONTENTS, ALLOC, LOAD, DATA
  7 .fini_array   00000004  08005fc0  08005fc0  00015fc0  2**2
                  CONTENTS, ALLOC, LOAD, DATA
  8 .data         000001dc  20000000  08005fc4  00020000  2**2
                  CONTENTS, ALLOC, LOAD, DATA
  9 .ccmram       00000000  10000000  10000000  000201dc  2**0
                  CONTENTS
 10 .bss          000002bc  200001dc  200001dc  000201dc  2**2
                  ALLOC
 11 ._user_heap_stack 00000600  20000498  20000498  000201dc  2**0
                  ALLOC
 12 .ARM.attributes 00000030  00000000  00000000  000201dc  2**0
                  CONTENTS, READONLY
 13 .comment      00000053  00000000  00000000  0002020c  2**0
                  CONTENTS, READONLY
 14 .debug_frame  0000127c  00000000  00000000  00020260  2**2
                  CONTENTS, READONLY, DEBUGGING, OCTETS

Disassembly of section .text:

08000190 <__do_global_dtors_aux>:
 8000190:	b510      	push	{r4, lr}
 8000192:	4c05      	ldr	r4, [pc, #20]	; (80001a8 <__do_global_dtors_aux+0x18>)
 8000194:	7823      	ldrb	r3, [r4, #0]
 8000196:	b933      	cbnz	r3, 80001a6 <__do_global_dtors_aux+0x16>
 8000198:	4b04      	ldr	r3, [pc, #16]	; (80001ac <__do_global_dtors_aux+0x1c>)
 800019a:	b113      	cbz	r3, 80001a2 <__do_global_dtors_aux+0x12>
 800019c:	4804      	ldr	r0, [pc, #16]	; (80001b0 <__do_global_dtors_aux+0x20>)
 800019e:	f3af 8000 	nop.w
 80001a2:	2301      	movs	r3, #1
 80001a4:	7023      	strb	r3, [r4, #0]
 80001a6:	bd10      	pop	{r4, pc}
 80001a8:	200001dc 	.word	0x200001dc
 80001ac:	00000000 	.word	0x00000000
 80001b0:	08005b3c 	.word	0x08005b3c

080001b4 <frame_dummy>:
 80001b4:	b508      	push	{r3, lr}
 80001b6:	4b03      	ldr	r3, [pc, #12]	; (80001c4 <frame_dummy+0x10>)
 80001b8:	b11b      	cbz	r3, 80001c2 <frame_dummy+0xe>
 80001ba:	4903      	ldr	r1, [pc, #12]	; (80001c8 <frame_dummy+0x14>)
 80001bc:	4803      	ldr	r0, [pc, #12]	; (80001cc <frame_dummy+0x18>)
 80001be:	f3af 8000 	nop.w
 80001c2:	bd08      	pop	{r3, pc}
 80001c4:	00000000 	.word	0x00000000
 80001c8:	200001e0 	.word	0x200001e0
 80001cc:	08005b3c 	.word	0x08005b3c

080001d0 <strlen>:
 80001d0:	4603      	mov	r3, r0
 80001d2:	f813 2b01 	ldrb.w	r2, [r3], #1
 80001d6:	2a00      	cmp	r2, #0
 80001d8:	d1fb      	bne.n	80001d2 <strlen+0x2>
 80001da:	1a18      	subs	r0, r3, r0
 80001dc:	3801      	subs	r0, #1
 80001de:	4770      	bx	lr

080001e0 <memchr>:
 80001e0:	f001 01ff 	and.w	r1, r1, #255	; 0xff
 80001e4:	2a10      	cmp	r2, #16
 80001e6:	db2b      	blt.n	8000240 <memchr+0x60>
 80001e8:	f010 0f07 	tst.w	r0, #7
 80001ec:	d008      	beq.n	8000200 <memchr+0x20>
 80001ee:	f810 3b01 	ldrb.w	r3, [r0], #1
 80001f2:	3a01      	subs	r2, #1
 80001f4:	428b      	cmp	r3, r1
 80001f6:	d02d      	beq.n	8000254 <memchr+0x74>
 80001f8:	f010 0f07 	tst.w	r0, #7
 80001fc:	b342      	cbz	r2, 8000250 <memchr+0x70>
 80001fe:	d1f6      	bne.n	80001ee <memchr+0xe>
 8000200:	b4f0      	push	{r4, r5, r6, r7}
 8000202:	ea41 2101 	orr.w	r1, r1, r1, lsl #8
 8000206:	ea41 4101 	orr.w	r1, r1, r1, lsl #16
 800020a:	f022 0407 	bic.w	r4, r2, #7
 800020e:	f07f 0700 	mvns.w	r7, #0
 8000212:	2300      	movs	r3, #0
 8000214:	e8f0 5602 	ldrd	r5, r6, [r0], #8
 8000218:	3c08      	subs	r4, #8
 800021a:	ea85 0501 	eor.w	r5, r5, r1
 800021e:	ea86 0601 	eor.w	r6, r6, r1
 8000222:	fa85 f547 	uadd8	r5, r5, r7
 8000226:	faa3 f587 	sel	r5, r3, r7
 800022a:	fa86 f647 	uadd8	r6, r6, r7
 800022e:	faa5 f687 	sel	r6, r5, r7
 8000232:	b98e      	cbnz	r6, 8000258 <memchr+0x78>
 8000234:	d1ee      	bne.n	8000214 <memchr+0x34>
 8000236:	bcf0      	pop	{r4, r5, r6, r7}
 8000238:	f001 01ff 	and.w	r1, r1, #255	; 0xff
 800023c:	f002 0207 	and.w	r2, r2, #7
 8000240:	b132      	cbz	r2, 8000250 <memchr+0x70>
 8000242:	f810 3b01 	ldrb.w	r3, [r0], #1
 8000246:	3a01      	subs	r2, #1
 8000248:	ea83 0301 	eor.w	r3, r3, r1
 800024c:	b113      	cbz	r3, 8000254 <memchr+0x74>
 800024e:	d1f8      	bne.n	8000242 <memchr+0x62>
 8000250:	2000      	movs	r0, #0
 8000252:	4770      	bx	lr
 8000254:	3801      	subs	r0, #1
 8000256:	4770      	bx	lr
 8000258:	2d00      	cmp	r5, #0
 800025a:	bf06      	itte	eq
 800025c:	4635      	moveq	r5, r6
 800025e:	3803      	subeq	r0, #3
 8000260:	3807      	subne	r0, #7
 8000262:	f015 0f01 	tst.w	r5, #1
 8000266:	d107      	bne.n	8000278 <memchr+0x98>
 8000268:	3001      	adds	r0, #1
 800026a:	f415 7f80 	tst.w	r5, #256	; 0x100
 800026e:	bf02      	ittt	eq
 8000270:	3001      	addeq	r0, #1
 8000272:	f415 3fc0 	tsteq.w	r5, #98304	; 0x18000
 8000276:	3001      	addeq	r0, #1
 8000278:	bcf0      	pop	{r4, r5, r6, r7}
 800027a:	3801      	subs	r0, #1
 800027c:	4770      	bx	lr
 800027e:	bf00      	nop

08000280 <__aeabi_drsub>:
 8000280:	f081 4100 	eor.w	r1, r1, #2147483648	; 0x80000000
 8000284:	e002      	b.n	800028c <__adddf3>
 8000286:	bf00      	nop

08000288 <__aeabi_dsub>:
 8000288:	f083 4300 	eor.w	r3, r3, #2147483648	; 0x80000000

0800028c <__adddf3>:
 800028c:	b530      	push	{r4, r5, lr}
 800028e:	ea4f 0441 	mov.w	r4, r1, lsl #1
 8000292:	ea4f 0543 	mov.w	r5, r3, lsl #1
 8000296:	ea94 0f05 	teq	r4, r5
 800029a:	bf08      	it	eq
 800029c:	ea90 0f02 	teqeq	r0, r2
 80002a0:	bf1f      	itttt	ne
 80002a2:	ea54 0c00 	orrsne.w	ip, r4, r0
 80002a6:	ea55 0c02 	orrsne.w	ip, r5, r2
 80002aa:	ea7f 5c64 	mvnsne.w	ip, r4, asr #21
 80002ae:	ea7f 5c65 	mvnsne.w	ip, r5, asr #21
 80002b2:	f000 80e2 	beq.w	800047a <__adddf3+0x1ee>
 80002b6:	ea4f 5454 	mov.w	r4, r4, lsr #21
 80002ba:	ebd4 5555 	rsbs	r5, r4, r5, lsr #21
 80002be:	bfb8      	it	lt
 80002c0:	426d      	neglt	r5, r5
 80002c2:	dd0c      	ble.n	80002de <__adddf3+0x52>
 80002c4:	442c      	add	r4, r5
 80002c6:	ea80 0202 	eor.w	r2, r0, r2
 80002ca:	ea81 0303 	eor.w	r3, r1, r3
 80002ce:	ea82 0000 	eor.w	r0, r2, r0
 80002d2:	ea83 0101 	eor.w	r1, r3, r1
 80002d6:	ea80 0202 	eor.w	r2, r0, r2
 80002da:	ea81 0303 	eor.w	r3, r1, r3
 80002de:	2d36      	cmp	r5, #54	; 0x36
 80002e0:	bf88      	it	hi
 80002e2:	bd30      	pophi	{r4, r5, pc}
 80002e4:	f011 4f00 	tst.w	r1, #2147483648	; 0x80000000
 80002e8:	ea4f 3101 	mov.w	r1, r1, lsl #12
 80002ec:	f44f 1c80 	mov.w	ip, #1048576	; 0x100000
 80002f0:	ea4c 3111 	orr.w	r1, ip, r1, lsr #12
 80002f4:	d002      	beq.n	80002fc <__adddf3+0x70>
 80002f6:	4240      	negs	r0, r0
 80002f8:	eb61 0141 	sbc.w	r1, r1, r1, lsl #1
 80002fc:	f013 4f00 	tst.w	r3, #2147483648	; 0x80000000
 8000300:	ea4f 3303 	mov.w	r3, r3, lsl #12
 8000304:	ea4c 3313 	orr.w	r3, ip, r3, lsr #12
 8000308:	d002      	beq.n	8000310 <__adddf3+0x84>
 800030a:	4252      	negs	r2, r2
 800030c:	eb63 0343 	sbc.w	r3, r3, r3, lsl #1
 8000310:	ea94 0f05 	teq	r4, r5
 8000314:	f000 80a7 	beq.w	8000466 <__adddf3+0x1da>
 8000318:	f1a4 0401 	sub.w	r4, r4, #1
 800031c:	f1d5 0e20 	rsbs	lr, r5, #32
 8000320:	db0d      	blt.n	800033e <__adddf3+0xb2>
 8000322:	fa02 fc0e 	lsl.w	ip, r2, lr
 8000326:	fa22 f205 	lsr.w	r2, r2, r5
 800032a:	1880      	adds	r0, r0, r2
 800032c:	f141 0100 	adc.w	r1, r1, #0
 8000330:	fa03 f20e 	lsl.w	r2, r3, lr
 8000334:	1880      	adds	r0, r0, r2
 8000336:	fa43 f305 	asr.w	r3, r3, r5
 800033a:	4159      	adcs	r1, r3
 800033c:	e00e      	b.n	800035c <__adddf3+0xd0>
 800033e:	f1a5 0520 	sub.w	r5, r5, #32
 8000342:	f10e 0e20 	add.w	lr, lr, #32
 8000346:	2a01      	cmp	r2, #1
 8000348:	fa03 fc0e 	lsl.w	ip, r3, lr
 800034c:	bf28      	it	cs
 800034e:	f04c 0c02 	orrcs.w	ip, ip, #2
 8000352:	fa43 f305 	asr.w	r3, r3, r5
 8000356:	18c0      	adds	r0, r0, r3
 8000358:	eb51 71e3 	adcs.w	r1, r1, r3, asr #31
 800035c:	f001 4500 	and.w	r5, r1, #2147483648	; 0x80000000
 8000360:	d507      	bpl.n	8000372 <__adddf3+0xe6>
 8000362:	f04f 0e00 	mov.w	lr, #0
 8000366:	f1dc 0c00 	rsbs	ip, ip, #0
 800036a:	eb7e 0000 	sbcs.w	r0, lr, r0
 800036e:	eb6e 0101 	sbc.w	r1, lr, r1
 8000372:	f5b1 1f80 	cmp.w	r1, #1048576	; 0x100000
 8000376:	d31b      	bcc.n	80003b0 <__adddf3+0x124>
 8000378:	f5b1 1f00 	cmp.w	r1, #2097152	; 0x200000
 800037c:	d30c      	bcc.n	8000398 <__adddf3+0x10c>
 800037e:	0849      	lsrs	r1, r1, #1
 8000380:	ea5f 0030 	movs.w	r0, r0, rrx
 8000384:	ea4f 0c3c 	mov.w	ip, ip, rrx
 8000388:	f104 0401 	add.w	r4, r4, #1
 800038c:	ea4f 5244 	mov.w	r2, r4, lsl #21
 8000390:	f512 0f80 	cmn.w	r2, #4194304	; 0x400000
 8000394:	f080 809a 	bcs.w	80004cc <__adddf3+0x240>
 8000398:	f1bc 4f00 	cmp.w	ip, #2147483648	; 0x80000000
 800039c:	bf08      	it	eq
 800039e:	ea5f 0c50 	movseq.w	ip, r0, lsr #1
 80003a2:	f150 0000 	adcs.w	r0, r0, #0
 80003a6:	eb41 5104 	adc.w	r1, r1, r4, lsl #20
 80003aa:	ea41 0105 	orr.w	r1, r1, r5
 80003ae:	bd30      	pop	{r4, r5, pc}
 80003b0:	ea5f 0c4c 	movs.w	ip, ip, lsl #1
 80003b4:	4140      	adcs	r0, r0
 80003b6:	eb41 0101 	adc.w	r1, r1, r1
 80003ba:	3c01      	subs	r4, #1
 80003bc:	bf28      	it	cs
 80003be:	f5b1 1f80 	cmpcs.w	r1, #1048576	; 0x100000
 80003c2:	d2e9      	bcs.n	8000398 <__adddf3+0x10c>
 80003c4:	f091 0f00 	teq	r1, #0
 80003c8:	bf04      	itt	eq
 80003ca:	4601      	moveq	r1, r0
 80003cc:	2000      	moveq	r0, #0
 80003ce:	fab1 f381 	clz	r3, r1
 80003d2:	bf08      	it	eq
 80003d4:	3320      	addeq	r3, #32
 80003d6:	f1a3 030b 	sub.w	r3, r3, #11
 80003da:	f1b3 0220 	subs.w	r2, r3, #32
 80003de:	da0c      	bge.n	80003fa <__adddf3+0x16e>
 80003e0:	320c      	adds	r2, #12
 80003e2:	dd08      	ble.n	80003f6 <__adddf3+0x16a>
 80003e4:	f102 0c14 	add.w	ip, r2, #20
 80003e8:	f1c2 020c 	rsb	r2, r2, #12
 80003ec:	fa01 f00c 	lsl.w	r0, r1, ip
 80003f0:	fa21 f102 	lsr.w	r1, r1, r2
 80003f4:	e00c      	b.n	8000410 <__adddf3+0x184>
 80003f6:	f102 0214 	add.w	r2, r2, #20
 80003fa:	bfd8      	it	le
 80003fc:	f1c2 0c20 	rsble	ip, r2, #32
 8000400:	fa01 f102 	lsl.w	r1, r1, r2
 8000404:	fa20 fc0c 	lsr.w	ip, r0, ip
 8000408:	bfdc      	itt	le
 800040a:	ea41 010c 	orrle.w	r1, r1, ip
 800040e:	4090      	lslle	r0, r2
 8000410:	1ae4      	subs	r4, r4, r3
 8000412:	bfa2      	ittt	ge
 8000414:	eb01 5104 	addge.w	r1, r1, r4, lsl #20
 8000418:	4329      	orrge	r1, r5
 800041a:	bd30      	popge	{r4, r5, pc}
 800041c:	ea6f 0404 	mvn.w	r4, r4
 8000420:	3c1f      	subs	r4, #31
 8000422:	da1c      	bge.n	800045e <__adddf3+0x1d2>
 8000424:	340c      	adds	r4, #12
 8000426:	dc0e      	bgt.n	8000446 <__adddf3+0x1ba>
 8000428:	f104 0414 	add.w	r4, r4, #20
 800042c:	f1c4 0220 	rsb	r2, r4, #32
 8000430:	fa20 f004 	lsr.w	r0, r0, r4
 8000434:	fa01 f302 	lsl.w	r3, r1, r2
 8000438:	ea40 0003 	orr.w	r0, r0, r3
 800043c:	fa21 f304 	lsr.w	r3, r1, r4
 8000440:	ea45 0103 	orr.w	r1, r5, r3
 8000444:	bd30      	pop	{r4, r5, pc}
 8000446:	f1c4 040c 	rsb	r4, r4, #12
 800044a:	f1c4 0220 	rsb	r2, r4, #32
 800044e:	fa20 f002 	lsr.w	r0, r0, r2
 8000452:	fa01 f304 	lsl.w	r3, r1, r4
 8000456:	ea40 0003 	orr.w	r0, r0, r3
 800045a:	4629      	mov	r1, r5
 800045c:	bd30      	pop	{r4, r5, pc}
 800045e:	fa21 f004 	lsr.w	r0, r1, r4
 8000462:	4629      	mov	r1, r5
 8000464:	bd30      	pop	{r4, r5, pc}
 8000466:	f094 0f00 	teq	r4, #0
 800046a:	f483 1380 	eor.w	r3, r3, #1048576	; 0x100000
 800046e:	bf06      	itte	eq
 8000470:	f481 1180 	eoreq.w	r1, r1, #1048576	; 0x100000
 8000474:	3401      	addeq	r4, #1
 8000476:	3d01      	subne	r5, #1
 8000478:	e74e      	b.n	8000318 <__adddf3+0x8c>
 800047a:	ea7f 5c64 	mvns.w	ip, r4, asr #21
 800047e:	bf18      	it	ne
 8000480:	ea7f 5c65 	mvnsne.w	ip, r5, asr #21
 8000484:	d029      	beq.n	80004da <__adddf3+0x24e>
 8000486:	ea94 0f05 	teq	r4, r5
 800048a:	bf08      	it	eq
 800048c:	ea90 0f02 	teqeq	r0, r2
 8000490:	d005      	beq.n	800049e <__adddf3+0x212>
 8000492:	ea54 0c00 	orrs.w	ip, r4, r0
 8000496:	bf04      	itt	eq
 8000498:	4619      	moveq	r1, r3
 800049a:	4610      	moveq	r0, r2
 800049c:	bd30      	pop	{r4, r5, pc}
 800049e:	ea91 0f03 	teq	r1, r3
 80004a2:	bf1e      	ittt	ne
 80004a4:	2100      	movne	r1, #0
 80004a6:	2000      	movne	r0, #0
 80004a8:	bd30      	popne	{r4, r5, pc}
 80004aa:	ea5f 5c54 	movs.w	ip, r4, lsr #21
 80004ae:	d105      	bne.n	80004bc <__adddf3+0x230>
 80004b0:	0040      	lsls	r0, r0, #1
 80004b2:	4149      	adcs	r1, r1
 80004b4:	bf28      	it	cs
 80004b6:	f041 4100 	orrcs.w	r1, r1, #2147483648	; 0x80000000
 80004ba:	bd30      	pop	{r4, r5, pc}
 80004bc:	f514 0480 	adds.w	r4, r4, #4194304	; 0x400000
 80004c0:	bf3c      	itt	cc
 80004c2:	f501 1180 	addcc.w	r1, r1, #1048576	; 0x100000
 80004c6:	bd30      	popcc	{r4, r5, pc}
 80004c8:	f001 4500 	and.w	r5, r1, #2147483648	; 0x80000000
 80004cc:	f045 41fe 	orr.w	r1, r5, #2130706432	; 0x7f000000
 80004d0:	f441 0170 	orr.w	r1, r1, #15728640	; 0xf00000
 80004d4:	f04f 0000 	mov.w	r0, #0
 80004d8:	bd30      	pop	{r4, r5, pc}
 80004da:	ea7f 5c64 	mvns.w	ip, r4, asr #21
 80004de:	bf1a      	itte	ne
 80004e0:	4619      	movne	r1, r3
 80004e2:	4610      	movne	r0, r2
 80004e4:	ea7f 5c65 	mvnseq.w	ip, r5, asr #21
 80004e8:	bf1c      	itt	ne
 80004ea:	460b      	movne	r3, r1
 80004ec:	4602      	movne	r2, r0
 80004ee:	ea50 3401 	orrs.w	r4, r0, r1, lsl #12
 80004f2:	bf06      	itte	eq
 80004f4:	ea52 3503 	orrseq.w	r5, r2, r3, lsl #12
 80004f8:	ea91 0f03 	teqeq	r1, r3
 80004fc:	f441 2100 	orrne.w	r1, r1, #524288	; 0x80000
 8000500:	bd30      	pop	{r4, r5, pc}
 8000502:	bf00      	nop

08000504 <__aeabi_ui2d>:
 8000504:	f090 0f00 	teq	r0, #0
 8000508:	bf04      	itt	eq
 800050a:	2100      	moveq	r1, #0
 800050c:	4770      	bxeq	lr
 800050e:	b530      	push	{r4, r5, lr}
 8000510:	f44f 6480 	mov.w	r4, #1024	; 0x400
 8000514:	f104 0432 	add.w	r4, r4, #50	; 0x32
 8000518:	f04f 0500 	mov.w	r5, #0
 800051c:	f04f 0100 	mov.w	r1, #0
 8000520:	e750      	b.n	80003c4 <__adddf3+0x138>
 8000522:	bf00      	nop

08000524 <__aeabi_i2d>:
 8000524:	f090 0f00 	teq	r0, #0
 8000528:	bf04      	itt	eq
 800052a:	2100      	moveq	r1, #0
 800052c:	4770      	bxeq	lr
 800052e:	b530      	push	{r4, r5, lr}
 8000530:	f44f 6480 	mov.w	r4, #1024	; 0x400
 8000534:	f104 0432 	add.w	r4, r4, #50	; 0x32
 8000538:	f010 4500 	ands.w	r5, r0, #2147483648	; 0x80000000
 800053c:	bf48      	it	mi
 800053e:	4240      	negmi	r0, r0
 8000540:	f04f 0100 	mov.w	r1, #0
 8000544:	e73e      	b.n	80003c4 <__adddf3+0x138>
 8000546:	bf00      	nop

08000548 <__aeabi_f2d>:
 8000548:	0042      	lsls	r2, r0, #1
 800054a:	ea4f 01e2 	mov.w	r1, r2, asr #3
 800054e:	ea4f 0131 	mov.w	r1, r1, rrx
 8000552:	ea4f 7002 	mov.w	r0, r2, lsl #28
 8000556:	bf1f      	itttt	ne
 8000558:	f012 437f 	andsne.w	r3, r2, #4278190080	; 0xff000000
 800055c:	f093 4f7f 	teqne	r3, #4278190080	; 0xff000000
 8000560:	f081 5160 	eorne.w	r1, r1, #939524096	; 0x38000000
 8000564:	4770      	bxne	lr
 8000566:	f032 427f 	bics.w	r2, r2, #4278190080	; 0xff000000
 800056a:	bf08      	it	eq
 800056c:	4770      	bxeq	lr
 800056e:	f093 4f7f 	teq	r3, #4278190080	; 0xff000000
 8000572:	bf04      	itt	eq
 8000574:	f441 2100 	orreq.w	r1, r1, #524288	; 0x80000
 8000578:	4770      	bxeq	lr
 800057a:	b530      	push	{r4, r5, lr}
 800057c:	f44f 7460 	mov.w	r4, #896	; 0x380
 8000580:	f001 4500 	and.w	r5, r1, #2147483648	; 0x80000000
 8000584:	f021 4100 	bic.w	r1, r1, #2147483648	; 0x80000000
 8000588:	e71c      	b.n	80003c4 <__adddf3+0x138>
 800058a:	bf00      	nop

0800058c <__aeabi_ul2d>:
 800058c:	ea50 0201 	orrs.w	r2, r0, r1
 8000590:	bf08      	it	eq
 8000592:	4770      	bxeq	lr
 8000594:	b530      	push	{r4, r5, lr}
 8000596:	f04f 0500 	mov.w	r5, #0
 800059a:	e00a      	b.n	80005b2 <__aeabi_l2d+0x16>

0800059c <__aeabi_l2d>:
 800059c:	ea50 0201 	orrs.w	r2, r0, r1
 80005a0:	bf08      	it	eq
 80005a2:	4770      	bxeq	lr
 80005a4:	b530      	push	{r4, r5, lr}
 80005a6:	f011 4500 	ands.w	r5, r1, #2147483648	; 0x80000000
 80005aa:	d502      	bpl.n	80005b2 <__aeabi_l2d+0x16>
 80005ac:	4240      	negs	r0, r0
 80005ae:	eb61 0141 	sbc.w	r1, r1, r1, lsl #1
 80005b2:	f44f 6480 	mov.w	r4, #1024	; 0x400
 80005b6:	f104 0432 	add.w	r4, r4, #50	; 0x32
 80005ba:	ea5f 5c91 	movs.w	ip, r1, lsr #22
 80005be:	f43f aed8 	beq.w	8000372 <__adddf3+0xe6>
 80005c2:	f04f 0203 	mov.w	r2, #3
 80005c6:	ea5f 0cdc 	movs.w	ip, ip, lsr #3
 80005ca:	bf18      	it	ne
 80005cc:	3203      	addne	r2, #3
 80005ce:	ea5f 0cdc 	movs.w	ip, ip, lsr #3
 80005d2:	bf18      	it	ne
 80005d4:	3203      	addne	r2, #3
 80005d6:	eb02 02dc 	add.w	r2, r2, ip, lsr #3
 80005da:	f1c2 0320 	rsb	r3, r2, #32
 80005de:	fa00 fc03 	lsl.w	ip, r0, r3
 80005e2:	fa20 f002 	lsr.w	r0, r0, r2
 80005e6:	fa01 fe03 	lsl.w	lr, r1, r3
 80005ea:	ea40 000e 	orr.w	r0, r0, lr
 80005ee:	fa21 f102 	lsr.w	r1, r1, r2
 80005f2:	4414      	add	r4, r2
 80005f4:	e6bd      	b.n	8000372 <__adddf3+0xe6>
 80005f6:	bf00      	nop

080005f8 <__aeabi_dmul>:
 80005f8:	b570      	push	{r4, r5, r6, lr}
 80005fa:	f04f 0cff 	mov.w	ip, #255	; 0xff
 80005fe:	f44c 6ce0 	orr.w	ip, ip, #1792	; 0x700
 8000602:	ea1c 5411 	ands.w	r4, ip, r1, lsr #20
 8000606:	bf1d      	ittte	ne
 8000608:	ea1c 5513 	andsne.w	r5, ip, r3, lsr #20
 800060c:	ea94 0f0c 	teqne	r4, ip
 8000610:	ea95 0f0c 	teqne	r5, ip
 8000614:	f000 f8de 	bleq	80007d4 <__aeabi_dmul+0x1dc>
 8000618:	442c      	add	r4, r5
 800061a:	ea81 0603 	eor.w	r6, r1, r3
 800061e:	ea21 514c 	bic.w	r1, r1, ip, lsl #21
 8000622:	ea23 534c 	bic.w	r3, r3, ip, lsl #21
 8000626:	ea50 3501 	orrs.w	r5, r0, r1, lsl #12
 800062a:	bf18      	it	ne
 800062c:	ea52 3503 	orrsne.w	r5, r2, r3, lsl #12
 8000630:	f441 1180 	orr.w	r1, r1, #1048576	; 0x100000
 8000634:	f443 1380 	orr.w	r3, r3, #1048576	; 0x100000
 8000638:	d038      	beq.n	80006ac <__aeabi_dmul+0xb4>
 800063a:	fba0 ce02 	umull	ip, lr, r0, r2
 800063e:	f04f 0500 	mov.w	r5, #0
 8000642:	fbe1 e502 	umlal	lr, r5, r1, r2
 8000646:	f006 4200 	and.w	r2, r6, #2147483648	; 0x80000000
 800064a:	fbe0 e503 	umlal	lr, r5, r0, r3
 800064e:	f04f 0600 	mov.w	r6, #0
 8000652:	fbe1 5603 	umlal	r5, r6, r1, r3
 8000656:	f09c 0f00 	teq	ip, #0
 800065a:	bf18      	it	ne
 800065c:	f04e 0e01 	orrne.w	lr, lr, #1
 8000660:	f1a4 04ff 	sub.w	r4, r4, #255	; 0xff
 8000664:	f5b6 7f00 	cmp.w	r6, #512	; 0x200
 8000668:	f564 7440 	sbc.w	r4, r4, #768	; 0x300
 800066c:	d204      	bcs.n	8000678 <__aeabi_dmul+0x80>
 800066e:	ea5f 0e4e 	movs.w	lr, lr, lsl #1
 8000672:	416d      	adcs	r5, r5
 8000674:	eb46 0606 	adc.w	r6, r6, r6
 8000678:	ea42 21c6 	orr.w	r1, r2, r6, lsl #11
 800067c:	ea41 5155 	orr.w	r1, r1, r5, lsr #21
 8000680:	ea4f 20c5 	mov.w	r0, r5, lsl #11
 8000684:	ea40 505e 	orr.w	r0, r0, lr, lsr #21
 8000688:	ea4f 2ece 	mov.w	lr, lr, lsl #11
 800068c:	f1b4 0cfd 	subs.w	ip, r4, #253	; 0xfd
 8000690:	bf88      	it	hi
 8000692:	f5bc 6fe0 	cmphi.w	ip, #1792	; 0x700
 8000696:	d81e      	bhi.n	80006d6 <__aeabi_dmul+0xde>
 8000698:	f1be 4f00 	cmp.w	lr, #2147483648	; 0x80000000
 800069c:	bf08      	it	eq
 800069e:	ea5f 0e50 	movseq.w	lr, r0, lsr #1
 80006a2:	f150 0000 	adcs.w	r0, r0, #0
 80006a6:	eb41 5104 	adc.w	r1, r1, r4, lsl #20
 80006aa:	bd70      	pop	{r4, r5, r6, pc}
 80006ac:	f006 4600 	and.w	r6, r6, #2147483648	; 0x80000000
 80006b0:	ea46 0101 	orr.w	r1, r6, r1
 80006b4:	ea40 0002 	orr.w	r0, r0, r2
 80006b8:	ea81 0103 	eor.w	r1, r1, r3
 80006bc:	ebb4 045c 	subs.w	r4, r4, ip, lsr #1
 80006c0:	bfc2      	ittt	gt
 80006c2:	ebd4 050c 	rsbsgt	r5, r4, ip
 80006c6:	ea41 5104 	orrgt.w	r1, r1, r4, lsl #20
 80006ca:	bd70      	popgt	{r4, r5, r6, pc}
 80006cc:	f441 1180 	orr.w	r1, r1, #1048576	; 0x100000
 80006d0:	f04f 0e00 	mov.w	lr, #0
 80006d4:	3c01      	subs	r4, #1
 80006d6:	f300 80ab 	bgt.w	8000830 <__aeabi_dmul+0x238>
 80006da:	f114 0f36 	cmn.w	r4, #54	; 0x36
 80006de:	bfde      	ittt	le
 80006e0:	2000      	movle	r0, #0
 80006e2:	f001 4100 	andle.w	r1, r1, #2147483648	; 0x80000000
 80006e6:	bd70      	pople	{r4, r5, r6, pc}
 80006e8:	f1c4 0400 	rsb	r4, r4, #0
 80006ec:	3c20      	subs	r4, #32
 80006ee:	da35      	bge.n	800075c <__aeabi_dmul+0x164>
 80006f0:	340c      	adds	r4, #12
 80006f2:	dc1b      	bgt.n	800072c <__aeabi_dmul+0x134>
 80006f4:	f104 0414 	add.w	r4, r4, #20
 80006f8:	f1c4 0520 	rsb	r5, r4, #32
 80006fc:	fa00 f305 	lsl.w	r3, r0, r5
 8000700:	fa20 f004 	lsr.w	r0, r0, r4
 8000704:	fa01 f205 	lsl.w	r2, r1, r5
 8000708:	ea40 0002 	orr.w	r0, r0, r2
 800070c:	f001 4200 	and.w	r2, r1, #2147483648	; 0x80000000
 8000710:	f021 4100 	bic.w	r1, r1, #2147483648	; 0x80000000
 8000714:	eb10 70d3 	adds.w	r0, r0, r3, lsr #31
 8000718:	fa21 f604 	lsr.w	r6, r1, r4
 800071c:	eb42 0106 	adc.w	r1, r2, r6
 8000720:	ea5e 0e43 	orrs.w	lr, lr, r3, lsl #1
 8000724:	bf08      	it	eq
 8000726:	ea20 70d3 	biceq.w	r0, r0, r3, lsr #31
 800072a:	bd70      	pop	{r4, r5, r6, pc}
 800072c:	f1c4 040c 	rsb	r4, r4, #12
 8000730:	f1c4 0520 	rsb	r5, r4, #32
 8000734:	fa00 f304 	lsl.w	r3, r0, r4
 8000738:	fa20 f005 	lsr.w	r0, r0, r5
 800073c:	fa01 f204 	lsl.w	r2, r1, r4
 8000740:	ea40 0002 	orr.w	r0, r0, r2
 8000744:	f001 4100 	and.w	r1, r1, #2147483648	; 0x80000000
 8000748:	eb10 70d3 	adds.w	r0, r0, r3, lsr #31
 800074c:	f141 0100 	adc.w	r1, r1, #0
 8000750:	ea5e 0e43 	orrs.w	lr, lr, r3, lsl #1
 8000754:	bf08      	it	eq
 8000756:	ea20 70d3 	biceq.w	r0, r0, r3, lsr #31
 800075a:	bd70      	pop	{r4, r5, r6, pc}
 800075c:	f1c4 0520 	rsb	r5, r4, #32
 8000760:	fa00 f205 	lsl.w	r2, r0, r5
 8000764:	ea4e 0e02 	orr.w	lr, lr, r2
 8000768:	fa20 f304 	lsr.w	r3, r0, r4
 800076c:	fa01 f205 	lsl.w	r2, r1, r5
 8000770:	ea43 0302 	orr.w	r3, r3, r2
 8000774:	fa21 f004 	lsr.w	r0, r1, r4
 8000778:	f001 4100 	and.w	r1, r1, #2147483648	; 0x80000000
 800077c:	fa21 f204 	lsr.w	r2, r1, r4
 8000780:	ea20 0002 	bic.w	r0, r0, r2
 8000784:	eb00 70d3 	add.w	r0, r0, r3, lsr #31
 8000788:	ea5e 0e43 	orrs.w	lr, lr, r3, lsl #1
 800078c:	bf08      	it	eq
 800078e:	ea20 70d3 	biceq.w	r0, r0, r3, lsr #31
 8000792:	bd70      	pop	{r4, r5, r6, pc}
 8000794:	f094 0f00 	teq	r4, #0
 8000798:	d10f      	bne.n	80007ba <__aeabi_dmul+0x1c2>
 800079a:	f001 4600 	and.w	r6, r1, #2147483648	; 0x80000000
 800079e:	0040      	lsls	r0, r0, #1
 80007a0:	eb41 0101 	adc.w	r1, r1, r1
 80007a4:	f411 1f80 	tst.w	r1, #1048576	; 0x100000
 80007a8:	bf08      	it	eq
 80007aa:	3c01      	subeq	r4, #1
 80007ac:	d0f7      	beq.n	800079e <__aeabi_dmul+0x1a6>
 80007ae:	ea41 0106 	orr.w	r1, r1, r6
 80007b2:	f095 0f00 	teq	r5, #0
 80007b6:	bf18      	it	ne
 80007b8:	4770      	bxne	lr
 80007ba:	f003 4600 	and.w	r6, r3, #2147483648	; 0x80000000
 80007be:	0052      	lsls	r2, r2, #1
 80007c0:	eb43 0303 	adc.w	r3, r3, r3
 80007c4:	f413 1f80 	tst.w	r3, #1048576	; 0x100000
 80007c8:	bf08      	it	eq
 80007ca:	3d01      	subeq	r5, #1
 80007cc:	d0f7      	beq.n	80007be <__aeabi_dmul+0x1c6>
 80007ce:	ea43 0306 	orr.w	r3, r3, r6
 80007d2:	4770      	bx	lr
 80007d4:	ea94 0f0c 	teq	r4, ip
 80007d8:	ea0c 5513 	and.w	r5, ip, r3, lsr #20
 80007dc:	bf18      	it	ne
 80007de:	ea95 0f0c 	teqne	r5, ip
 80007e2:	d00c      	beq.n	80007fe <__aeabi_dmul+0x206>
 80007e4:	ea50 0641 	orrs.w	r6, r0, r1, lsl #1
 80007e8:	bf18      	it	ne
 80007ea:	ea52 0643 	orrsne.w	r6, r2, r3, lsl #1
 80007ee:	d1d1      	bne.n	8000794 <__aeabi_dmul+0x19c>
 80007f0:	ea81 0103 	eor.w	r1, r1, r3
 80007f4:	f001 4100 	and.w	r1, r1, #2147483648	; 0x80000000
 80007f8:	f04f 0000 	mov.w	r0, #0
 80007fc:	bd70      	pop	{r4, r5, r6, pc}
 80007fe:	ea50 0641 	orrs.w	r6, r0, r1, lsl #1
 8000802:	bf06      	itte	eq
 8000804:	4610      	moveq	r0, r2
 8000806:	4619      	moveq	r1, r3
 8000808:	ea52 0643 	orrsne.w	r6, r2, r3, lsl #1
 800080c:	d019      	beq.n	8000842 <__aeabi_dmul+0x24a>
 800080e:	ea94 0f0c 	teq	r4, ip
 8000812:	d102      	bne.n	800081a <__aeabi_dmul+0x222>
 8000814:	ea50 3601 	orrs.w	r6, r0, r1, lsl #12
 8000818:	d113      	bne.n	8000842 <__aeabi_dmul+0x24a>
 800081a:	ea95 0f0c 	teq	r5, ip
 800081e:	d105      	bne.n	800082c <__aeabi_dmul+0x234>
 8000820:	ea52 3603 	orrs.w	r6, r2, r3, lsl #12
 8000824:	bf1c      	itt	ne
 8000826:	4610      	movne	r0, r2
 8000828:	4619      	movne	r1, r3
 800082a:	d10a      	bne.n	8000842 <__aeabi_dmul+0x24a>
 800082c:	ea81 0103 	eor.w	r1, r1, r3
 8000830:	f001 4100 	and.w	r1, r1, #2147483648	; 0x80000000
 8000834:	f041 41fe 	orr.w	r1, r1, #2130706432	; 0x7f000000
 8000838:	f441 0170 	orr.w	r1, r1, #15728640	; 0xf00000
 800083c:	f04f 0000 	mov.w	r0, #0
 8000840:	bd70      	pop	{r4, r5, r6, pc}
 8000842:	f041 41fe 	orr.w	r1, r1, #2130706432	; 0x7f000000
 8000846:	f441 0178 	orr.w	r1, r1, #16252928	; 0xf80000
 800084a:	bd70      	pop	{r4, r5, r6, pc}

0800084c <__aeabi_ddiv>:
 800084c:	b570      	push	{r4, r5, r6, lr}
 800084e:	f04f 0cff 	mov.w	ip, #255	; 0xff
 8000852:	f44c 6ce0 	orr.w	ip, ip, #1792	; 0x700
 8000856:	ea1c 5411 	ands.w	r4, ip, r1, lsr #20
 800085a:	bf1d      	ittte	ne
 800085c:	ea1c 5513 	andsne.w	r5, ip, r3, lsr #20
 8000860:	ea94 0f0c 	teqne	r4, ip
 8000864:	ea95 0f0c 	teqne	r5, ip
 8000868:	f000 f8a7 	bleq	80009ba <__aeabi_ddiv+0x16e>
 800086c:	eba4 0405 	sub.w	r4, r4, r5
 8000870:	ea81 0e03 	eor.w	lr, r1, r3
 8000874:	ea52 3503 	orrs.w	r5, r2, r3, lsl #12
 8000878:	ea4f 3101 	mov.w	r1, r1, lsl #12
 800087c:	f000 8088 	beq.w	8000990 <__aeabi_ddiv+0x144>
 8000880:	ea4f 3303 	mov.w	r3, r3, lsl #12
 8000884:	f04f 5580 	mov.w	r5, #268435456	; 0x10000000
 8000888:	ea45 1313 	orr.w	r3, r5, r3, lsr #4
 800088c:	ea43 6312 	orr.w	r3, r3, r2, lsr #24
 8000890:	ea4f 2202 	mov.w	r2, r2, lsl #8
 8000894:	ea45 1511 	orr.w	r5, r5, r1, lsr #4
 8000898:	ea45 6510 	orr.w	r5, r5, r0, lsr #24
 800089c:	ea4f 2600 	mov.w	r6, r0, lsl #8
 80008a0:	f00e 4100 	and.w	r1, lr, #2147483648	; 0x80000000
 80008a4:	429d      	cmp	r5, r3
 80008a6:	bf08      	it	eq
 80008a8:	4296      	cmpeq	r6, r2
 80008aa:	f144 04fd 	adc.w	r4, r4, #253	; 0xfd
 80008ae:	f504 7440 	add.w	r4, r4, #768	; 0x300
 80008b2:	d202      	bcs.n	80008ba <__aeabi_ddiv+0x6e>
 80008b4:	085b      	lsrs	r3, r3, #1
 80008b6:	ea4f 0232 	mov.w	r2, r2, rrx
 80008ba:	1ab6      	subs	r6, r6, r2
 80008bc:	eb65 0503 	sbc.w	r5, r5, r3
 80008c0:	085b      	lsrs	r3, r3, #1
 80008c2:	ea4f 0232 	mov.w	r2, r2, rrx
 80008c6:	f44f 1080 	mov.w	r0, #1048576	; 0x100000
 80008ca:	f44f 2c00 	mov.w	ip, #524288	; 0x80000
 80008ce:	ebb6 0e02 	subs.w	lr, r6, r2
 80008d2:	eb75 0e03 	sbcs.w	lr, r5, r3
 80008d6:	bf22      	ittt	cs
 80008d8:	1ab6      	subcs	r6, r6, r2
 80008da:	4675      	movcs	r5, lr
 80008dc:	ea40 000c 	orrcs.w	r0, r0, ip
 80008e0:	085b      	lsrs	r3, r3, #1
 80008e2:	ea4f 0232 	mov.w	r2, r2, rrx
 80008e6:	ebb6 0e02 	subs.w	lr, r6, r2
 80008ea:	eb75 0e03 	sbcs.w	lr, r5, r3
 80008ee:	bf22      	ittt	cs
 80008f0:	1ab6      	subcs	r6, r6, r2
 80008f2:	4675      	movcs	r5, lr
 80008f4:	ea40 005c 	orrcs.w	r0, r0, ip, lsr #1
 80008f8:	085b      	lsrs	r3, r3, #1
 80008fa:	ea4f 0232 	mov.w	r2, r2, rrx
 80008fe:	ebb6 0e02 	subs.w	lr, r6, r2
 8000902:	eb75 0e03 	sbcs.w	lr, r5, r3
 8000906:	bf22      	ittt	cs
 8000908:	1ab6      	subcs	r6, r6, r2
 800090a:	4675      	movcs	r5, lr
 800090c:	ea40 009c 	orrcs.w	r0, r0, ip, lsr #2
 8000910:	085b      	lsrs	r3, r3, #1
 8000912:	ea4f 0232 	mov.w	r2, r2, rrx
 8000916:	ebb6 0e02 	subs.w	lr, r6, r2
 800091a:	eb75 0e03 	sbcs.w	lr, r5, r3
 800091e:	bf22      	ittt	cs
 8000920:	1ab6      	subcs	r6, r6, r2
 8000922:	4675      	movcs	r5, lr
 8000924:	ea40 00dc 	orrcs.w	r0, r0, ip, lsr #3
 8000928:	ea55 0e06 	orrs.w	lr, r5, r6
 800092c:	d018      	beq.n	8000960 <__aeabi_ddiv+0x114>
 800092e:	ea4f 1505 	mov.w	r5, r5, lsl #4
 8000932:	ea45 7516 	orr.w	r5, r5, r6, lsr #28
 8000936:	ea4f 1606 	mov.w	r6, r6, lsl #4
 800093a:	ea4f 03c3 	mov.w	r3, r3, lsl #3
 800093e:	ea43 7352 	orr.w	r3, r3, r2, lsr #29
 8000942:	ea4f 02c2 	mov.w	r2, r2, lsl #3
 8000946:	ea5f 1c1c 	movs.w	ip, ip, lsr #4
 800094a:	d1c0      	bne.n	80008ce <__aeabi_ddiv+0x82>
 800094c:	f411 1f80 	tst.w	r1, #1048576	; 0x100000
 8000950:	d10b      	bne.n	800096a <__aeabi_ddiv+0x11e>
 8000952:	ea41 0100 	orr.w	r1, r1, r0
 8000956:	f04f 0000 	mov.w	r0, #0
 800095a:	f04f 4c00 	mov.w	ip, #2147483648	; 0x80000000
 800095e:	e7b6      	b.n	80008ce <__aeabi_ddiv+0x82>
 8000960:	f411 1f80 	tst.w	r1, #1048576	; 0x100000
 8000964:	bf04      	itt	eq
 8000966:	4301      	orreq	r1, r0
 8000968:	2000      	moveq	r0, #0
 800096a:	f1b4 0cfd 	subs.w	ip, r4, #253	; 0xfd
 800096e:	bf88      	it	hi
 8000970:	f5bc 6fe0 	cmphi.w	ip, #1792	; 0x700
 8000974:	f63f aeaf 	bhi.w	80006d6 <__aeabi_dmul+0xde>
 8000978:	ebb5 0c03 	subs.w	ip, r5, r3
 800097c:	bf04      	itt	eq
 800097e:	ebb6 0c02 	subseq.w	ip, r6, r2
 8000982:	ea5f 0c50 	movseq.w	ip, r0, lsr #1
 8000986:	f150 0000 	adcs.w	r0, r0, #0
 800098a:	eb41 5104 	adc.w	r1, r1, r4, lsl #20
 800098e:	bd70      	pop	{r4, r5, r6, pc}
 8000990:	f00e 4e00 	and.w	lr, lr, #2147483648	; 0x80000000
 8000994:	ea4e 3111 	orr.w	r1, lr, r1, lsr #12
 8000998:	eb14 045c 	adds.w	r4, r4, ip, lsr #1
 800099c:	bfc2      	ittt	gt
 800099e:	ebd4 050c 	rsbsgt	r5, r4, ip
 80009a2:	ea41 5104 	orrgt.w	r1, r1, r4, lsl #20
 80009a6:	bd70      	popgt	{r4, r5, r6, pc}
 80009a8:	f441 1180 	orr.w	r1, r1, #1048576	; 0x100000
 80009ac:	f04f 0e00 	mov.w	lr, #0
 80009b0:	3c01      	subs	r4, #1
 80009b2:	e690      	b.n	80006d6 <__aeabi_dmul+0xde>
 80009b4:	ea45 0e06 	orr.w	lr, r5, r6
 80009b8:	e68d      	b.n	80006d6 <__aeabi_dmul+0xde>
 80009ba:	ea0c 5513 	and.w	r5, ip, r3, lsr #20
 80009be:	ea94 0f0c 	teq	r4, ip
 80009c2:	bf08      	it	eq
 80009c4:	ea95 0f0c 	teqeq	r5, ip
 80009c8:	f43f af3b 	beq.w	8000842 <__aeabi_dmul+0x24a>
 80009cc:	ea94 0f0c 	teq	r4, ip
 80009d0:	d10a      	bne.n	80009e8 <__aeabi_ddiv+0x19c>
 80009d2:	ea50 3401 	orrs.w	r4, r0, r1, lsl #12
 80009d6:	f47f af34 	bne.w	8000842 <__aeabi_dmul+0x24a>
 80009da:	ea95 0f0c 	teq	r5, ip
 80009de:	f47f af25 	bne.w	800082c <__aeabi_dmul+0x234>
 80009e2:	4610      	mov	r0, r2
 80009e4:	4619      	mov	r1, r3
 80009e6:	e72c      	b.n	8000842 <__aeabi_dmul+0x24a>
 80009e8:	ea95 0f0c 	teq	r5, ip
 80009ec:	d106      	bne.n	80009fc <__aeabi_ddiv+0x1b0>
 80009ee:	ea52 3503 	orrs.w	r5, r2, r3, lsl #12
 80009f2:	f43f aefd 	beq.w	80007f0 <__aeabi_dmul+0x1f8>
 80009f6:	4610      	mov	r0, r2
 80009f8:	4619      	mov	r1, r3
 80009fa:	e722      	b.n	8000842 <__aeabi_dmul+0x24a>
 80009fc:	ea50 0641 	orrs.w	r6, r0, r1, lsl #1
 8000a00:	bf18      	it	ne
 8000a02:	ea52 0643 	orrsne.w	r6, r2, r3, lsl #1
 8000a06:	f47f aec5 	bne.w	8000794 <__aeabi_dmul+0x19c>
 8000a0a:	ea50 0441 	orrs.w	r4, r0, r1, lsl #1
 8000a0e:	f47f af0d 	bne.w	800082c <__aeabi_dmul+0x234>
 8000a12:	ea52 0543 	orrs.w	r5, r2, r3, lsl #1
 8000a16:	f47f aeeb 	bne.w	80007f0 <__aeabi_dmul+0x1f8>
 8000a1a:	e712      	b.n	8000842 <__aeabi_dmul+0x24a>

08000a1c <__gedf2>:
 8000a1c:	f04f 3cff 	mov.w	ip, #4294967295
 8000a20:	e006      	b.n	8000a30 <__cmpdf2+0x4>
 8000a22:	bf00      	nop

08000a24 <__ledf2>:
 8000a24:	f04f 0c01 	mov.w	ip, #1
 8000a28:	e002      	b.n	8000a30 <__cmpdf2+0x4>
 8000a2a:	bf00      	nop

08000a2c <__cmpdf2>:
 8000a2c:	f04f 0c01 	mov.w	ip, #1
 8000a30:	f84d cd04 	str.w	ip, [sp, #-4]!
 8000a34:	ea4f 0c41 	mov.w	ip, r1, lsl #1
 8000a38:	ea7f 5c6c 	mvns.w	ip, ip, asr #21
 8000a3c:	ea4f 0c43 	mov.w	ip, r3, lsl #1
 8000a40:	bf18      	it	ne
 8000a42:	ea7f 5c6c 	mvnsne.w	ip, ip, asr #21
 8000a46:	d01b      	beq.n	8000a80 <__cmpdf2+0x54>
 8000a48:	b001      	add	sp, #4
 8000a4a:	ea50 0c41 	orrs.w	ip, r0, r1, lsl #1
 8000a4e:	bf0c      	ite	eq
 8000a50:	ea52 0c43 	orrseq.w	ip, r2, r3, lsl #1
 8000a54:	ea91 0f03 	teqne	r1, r3
 8000a58:	bf02      	ittt	eq
 8000a5a:	ea90 0f02 	teqeq	r0, r2
 8000a5e:	2000      	moveq	r0, #0
 8000a60:	4770      	bxeq	lr
 8000a62:	f110 0f00 	cmn.w	r0, #0
 8000a66:	ea91 0f03 	teq	r1, r3
 8000a6a:	bf58      	it	pl
 8000a6c:	4299      	cmppl	r1, r3
 8000a6e:	bf08      	it	eq
 8000a70:	4290      	cmpeq	r0, r2
 8000a72:	bf2c      	ite	cs
 8000a74:	17d8      	asrcs	r0, r3, #31
 8000a76:	ea6f 70e3 	mvncc.w	r0, r3, asr #31
 8000a7a:	f040 0001 	orr.w	r0, r0, #1
 8000a7e:	4770      	bx	lr
 8000a80:	ea4f 0c41 	mov.w	ip, r1, lsl #1
 8000a84:	ea7f 5c6c 	mvns.w	ip, ip, asr #21
 8000a88:	d102      	bne.n	8000a90 <__cmpdf2+0x64>
 8000a8a:	ea50 3c01 	orrs.w	ip, r0, r1, lsl #12
 8000a8e:	d107      	bne.n	8000aa0 <__cmpdf2+0x74>
 8000a90:	ea4f 0c43 	mov.w	ip, r3, lsl #1
 8000a94:	ea7f 5c6c 	mvns.w	ip, ip, asr #21
 8000a98:	d1d6      	bne.n	8000a48 <__cmpdf2+0x1c>
 8000a9a:	ea52 3c03 	orrs.w	ip, r2, r3, lsl #12
 8000a9e:	d0d3      	beq.n	8000a48 <__cmpdf2+0x1c>
 8000aa0:	f85d 0b04 	ldr.w	r0, [sp], #4
 8000aa4:	4770      	bx	lr
 8000aa6:	bf00      	nop

08000aa8 <__aeabi_cdrcmple>:
 8000aa8:	4684      	mov	ip, r0
 8000aaa:	4610      	mov	r0, r2
 8000aac:	4662      	mov	r2, ip
 8000aae:	468c      	mov	ip, r1
 8000ab0:	4619      	mov	r1, r3
 8000ab2:	4663      	mov	r3, ip
 8000ab4:	e000      	b.n	8000ab8 <__aeabi_cdcmpeq>
 8000ab6:	bf00      	nop

08000ab8 <__aeabi_cdcmpeq>:
 8000ab8:	b501      	push	{r0, lr}
 8000aba:	f7ff ffb7 	bl	8000a2c <__cmpdf2>
 8000abe:	2800      	cmp	r0, #0
 8000ac0:	bf48      	it	mi
 8000ac2:	f110 0f00 	cmnmi.w	r0, #0
 8000ac6:	bd01      	pop	{r0, pc}

08000ac8 <__aeabi_dcmpeq>:
 8000ac8:	f84d ed08 	str.w	lr, [sp, #-8]!
 8000acc:	f7ff fff4 	bl	8000ab8 <__aeabi_cdcmpeq>
 8000ad0:	bf0c      	ite	eq
 8000ad2:	2001      	moveq	r0, #1
 8000ad4:	2000      	movne	r0, #0
 8000ad6:	f85d fb08 	ldr.w	pc, [sp], #8
 8000ada:	bf00      	nop

08000adc <__aeabi_dcmplt>:
 8000adc:	f84d ed08 	str.w	lr, [sp, #-8]!
 8000ae0:	f7ff ffea 	bl	8000ab8 <__aeabi_cdcmpeq>
 8000ae4:	bf34      	ite	cc
 8000ae6:	2001      	movcc	r0, #1
 8000ae8:	2000      	movcs	r0, #0
 8000aea:	f85d fb08 	ldr.w	pc, [sp], #8
 8000aee:	bf00      	nop

08000af0 <__aeabi_dcmple>:
 8000af0:	f84d ed08 	str.w	lr, [sp, #-8]!
 8000af4:	f7ff ffe0 	bl	8000ab8 <__aeabi_cdcmpeq>
 8000af8:	bf94      	ite	ls
 8000afa:	2001      	movls	r0, #1
 8000afc:	2000      	movhi	r0, #0
 8000afe:	f85d fb08 	ldr.w	pc, [sp], #8
 8000b02:	bf00      	nop

08000b04 <__aeabi_dcmpge>:
 8000b04:	f84d ed08 	str.w	lr, [sp, #-8]!
 8000b08:	f7ff ffce 	bl	8000aa8 <__aeabi_cdrcmple>
 8000b0c:	bf94      	ite	ls
 8000b0e:	2001      	movls	r0, #1
 8000b10:	2000      	movhi	r0, #0
 8000b12:	f85d fb08 	ldr.w	pc, [sp], #8
 8000b16:	bf00      	nop

08000b18 <__aeabi_dcmpgt>:
 8000b18:	f84d ed08 	str.w	lr, [sp, #-8]!
 8000b1c:	f7ff ffc4 	bl	8000aa8 <__aeabi_cdrcmple>
 8000b20:	bf34      	ite	cc
 8000b22:	2001      	movcc	r0, #1
 8000b24:	2000      	movcs	r0, #0
 8000b26:	f85d fb08 	ldr.w	pc, [sp], #8
 8000b2a:	bf00      	nop

08000b2c <__aeabi_dcmpun>:
 8000b2c:	ea4f 0c41 	mov.w	ip, r1, lsl #1
 8000b30:	ea7f 5c6c 	mvns.w	ip, ip, asr #21
 8000b34:	d102      	bne.n	8000b3c <__aeabi_dcmpun+0x10>
 8000b36:	ea50 3c01 	orrs.w	ip, r0, r1, lsl #12
 8000b3a:	d10a      	bne.n	8000b52 <__aeabi_dcmpun+0x26>
 8000b3c:	ea4f 0c43 	mov.w	ip, r3, lsl #1
 8000b40:	ea7f 5c6c 	mvns.w	ip, ip, asr #21
 8000b44:	d102      	bne.n	8000b4c <__aeabi_dcmpun+0x20>
 8000b46:	ea52 3c03 	orrs.w	ip, r2, r3, lsl #12
 8000b4a:	d102      	bne.n	8000b52 <__aeabi_dcmpun+0x26>
 8000b4c:	f04f 0000 	mov.w	r0, #0
 8000b50:	4770      	bx	lr
 8000b52:	f04f 0001 	mov.w	r0, #1
 8000b56:	4770      	bx	lr

08000b58 <__aeabi_d2iz>:
 8000b58:	ea4f 0241 	mov.w	r2, r1, lsl #1
 8000b5c:	f512 1200 	adds.w	r2, r2, #2097152	; 0x200000
 8000b60:	d215      	bcs.n	8000b8e <__aeabi_d2iz+0x36>
 8000b62:	d511      	bpl.n	8000b88 <__aeabi_d2iz+0x30>
 8000b64:	f46f 7378 	mvn.w	r3, #992	; 0x3e0
 8000b68:	ebb3 5262 	subs.w	r2, r3, r2, asr #21
 8000b6c:	d912      	bls.n	8000b94 <__aeabi_d2iz+0x3c>
 8000b6e:	ea4f 23c1 	mov.w	r3, r1, lsl #11
 8000b72:	f043 4300 	orr.w	r3, r3, #2147483648	; 0x80000000
 8000b76:	ea43 5350 	orr.w	r3, r3, r0, lsr #21
 8000b7a:	f011 4f00 	tst.w	r1, #2147483648	; 0x80000000
 8000b7e:	fa23 f002 	lsr.w	r0, r3, r2
 8000b82:	bf18      	it	ne
 8000b84:	4240      	negne	r0, r0
 8000b86:	4770      	bx	lr
 8000b88:	f04f 0000 	mov.w	r0, #0
 8000b8c:	4770      	bx	lr
 8000b8e:	ea50 3001 	orrs.w	r0, r0, r1, lsl #12
 8000b92:	d105      	bne.n	8000ba0 <__aeabi_d2iz+0x48>
 8000b94:	f011 4000 	ands.w	r0, r1, #2147483648	; 0x80000000
 8000b98:	bf08      	it	eq
 8000b9a:	f06f 4000 	mvneq.w	r0, #2147483648	; 0x80000000
 8000b9e:	4770      	bx	lr
 8000ba0:	f04f 0000 	mov.w	r0, #0
 8000ba4:	4770      	bx	lr
 8000ba6:	bf00      	nop

08000ba8 <__aeabi_d2f>:
 8000ba8:	ea4f 0241 	mov.w	r2, r1, lsl #1
 8000bac:	f1b2 43e0 	subs.w	r3, r2, #1879048192	; 0x70000000
 8000bb0:	bf24      	itt	cs
 8000bb2:	f5b3 1c00 	subscs.w	ip, r3, #2097152	; 0x200000
 8000bb6:	f1dc 5cfe 	rsbscs	ip, ip, #532676608	; 0x1fc00000
 8000bba:	d90d      	bls.n	8000bd8 <__aeabi_d2f+0x30>
 8000bbc:	f001 4c00 	and.w	ip, r1, #2147483648	; 0x80000000
 8000bc0:	ea4f 02c0 	mov.w	r2, r0, lsl #3
 8000bc4:	ea4c 7050 	orr.w	r0, ip, r0, lsr #29
 8000bc8:	f1b2 4f00 	cmp.w	r2, #2147483648	; 0x80000000
 8000bcc:	eb40 0083 	adc.w	r0, r0, r3, lsl #2
 8000bd0:	bf08      	it	eq
 8000bd2:	f020 0001 	biceq.w	r0, r0, #1
 8000bd6:	4770      	bx	lr
 8000bd8:	f011 4f80 	tst.w	r1, #1073741824	; 0x40000000
 8000bdc:	d121      	bne.n	8000c22 <__aeabi_d2f+0x7a>
 8000bde:	f113 7238 	adds.w	r2, r3, #48234496	; 0x2e00000
 8000be2:	bfbc      	itt	lt
 8000be4:	f001 4000 	andlt.w	r0, r1, #2147483648	; 0x80000000
 8000be8:	4770      	bxlt	lr
 8000bea:	f441 1180 	orr.w	r1, r1, #1048576	; 0x100000
 8000bee:	ea4f 5252 	mov.w	r2, r2, lsr #21
 8000bf2:	f1c2 0218 	rsb	r2, r2, #24
 8000bf6:	f1c2 0c20 	rsb	ip, r2, #32
 8000bfa:	fa10 f30c 	lsls.w	r3, r0, ip
 8000bfe:	fa20 f002 	lsr.w	r0, r0, r2
 8000c02:	bf18      	it	ne
 8000c04:	f040 0001 	orrne.w	r0, r0, #1
 8000c08:	ea4f 23c1 	mov.w	r3, r1, lsl #11
 8000c0c:	ea4f 23d3 	mov.w	r3, r3, lsr #11
 8000c10:	fa03 fc0c 	lsl.w	ip, r3, ip
 8000c14:	ea40 000c 	orr.w	r0, r0, ip
 8000c18:	fa23 f302 	lsr.w	r3, r3, r2
 8000c1c:	ea4f 0343 	mov.w	r3, r3, lsl #1
 8000c20:	e7cc      	b.n	8000bbc <__aeabi_d2f+0x14>
 8000c22:	ea7f 5362 	mvns.w	r3, r2, asr #21
 8000c26:	d107      	bne.n	8000c38 <__aeabi_d2f+0x90>
 8000c28:	ea50 3301 	orrs.w	r3, r0, r1, lsl #12
 8000c2c:	bf1e      	ittt	ne
 8000c2e:	f04f 40fe 	movne.w	r0, #2130706432	; 0x7f000000
 8000c32:	f440 0040 	orrne.w	r0, r0, #12582912	; 0xc00000
 8000c36:	4770      	bxne	lr
 8000c38:	f001 4000 	and.w	r0, r1, #2147483648	; 0x80000000
 8000c3c:	f040 40fe 	orr.w	r0, r0, #2130706432	; 0x7f000000
 8000c40:	f440 0000 	orr.w	r0, r0, #8388608	; 0x800000
 8000c44:	4770      	bx	lr
 8000c46:	bf00      	nop

08000c48 <__aeabi_uldivmod>:
 8000c48:	b953      	cbnz	r3, 8000c60 <__aeabi_uldivmod+0x18>
 8000c4a:	b94a      	cbnz	r2, 8000c60 <__aeabi_uldivmod+0x18>
 8000c4c:	2900      	cmp	r1, #0
 8000c4e:	bf08      	it	eq
 8000c50:	2800      	cmpeq	r0, #0
 8000c52:	bf1c      	itt	ne
 8000c54:	f04f 31ff 	movne.w	r1, #4294967295
 8000c58:	f04f 30ff 	movne.w	r0, #4294967295
 8000c5c:	f000 b96e 	b.w	8000f3c <__aeabi_idiv0>
 8000c60:	f1ad 0c08 	sub.w	ip, sp, #8
 8000c64:	e96d ce04 	strd	ip, lr, [sp, #-16]!
 8000c68:	f000 f806 	bl	8000c78 <__udivmoddi4>
 8000c6c:	f8dd e004 	ldr.w	lr, [sp, #4]
 8000c70:	e9dd 2302 	ldrd	r2, r3, [sp, #8]
 8000c74:	b004      	add	sp, #16
 8000c76:	4770      	bx	lr

08000c78 <__udivmoddi4>:
 8000c78:	e92d 47f0 	stmdb	sp!, {r4, r5, r6, r7, r8, r9, sl, lr}
 8000c7c:	9d08      	ldr	r5, [sp, #32]
 8000c7e:	4604      	mov	r4, r0
 8000c80:	468c      	mov	ip, r1
 8000c82:	2b00      	cmp	r3, #0
 8000c84:	f040 8083 	bne.w	8000d8e <__udivmoddi4+0x116>
 8000c88:	428a      	cmp	r2, r1
 8000c8a:	4617      	mov	r7, r2
 8000c8c:	d947      	bls.n	8000d1e <__udivmoddi4+0xa6>
 8000c8e:	fab2 f282 	clz	r2, r2
 8000c92:	b142      	cbz	r2, 8000ca6 <__udivmoddi4+0x2e>
 8000c94:	f1c2 0020 	rsb	r0, r2, #32
 8000c98:	fa24 f000 	lsr.w	r0, r4, r0
 8000c9c:	4091      	lsls	r1, r2
 8000c9e:	4097      	lsls	r7, r2
 8000ca0:	ea40 0c01 	orr.w	ip, r0, r1
 8000ca4:	4094      	lsls	r4, r2
 8000ca6:	ea4f 4817 	mov.w	r8, r7, lsr #16
 8000caa:	0c23      	lsrs	r3, r4, #16
 8000cac:	fbbc f6f8 	udiv	r6, ip, r8
 8000cb0:	fa1f fe87 	uxth.w	lr, r7
 8000cb4:	fb08 c116 	mls	r1, r8, r6, ip
 8000cb8:	ea43 4301 	orr.w	r3, r3, r1, lsl #16
 8000cbc:	fb06 f10e 	mul.w	r1, r6, lr
 8000cc0:	4299      	cmp	r1, r3
 8000cc2:	d909      	bls.n	8000cd8 <__udivmoddi4+0x60>
 8000cc4:	18fb      	adds	r3, r7, r3
 8000cc6:	f106 30ff 	add.w	r0, r6, #4294967295
 8000cca:	f080 8119 	bcs.w	8000f00 <__udivmoddi4+0x288>
 8000cce:	4299      	cmp	r1, r3
 8000cd0:	f240 8116 	bls.w	8000f00 <__udivmoddi4+0x288>
 8000cd4:	3e02      	subs	r6, #2
 8000cd6:	443b      	add	r3, r7
 8000cd8:	1a5b      	subs	r3, r3, r1
 8000cda:	b2a4      	uxth	r4, r4
 8000cdc:	fbb3 f0f8 	udiv	r0, r3, r8
 8000ce0:	fb08 3310 	mls	r3, r8, r0, r3
 8000ce4:	ea44 4403 	orr.w	r4, r4, r3, lsl #16
 8000ce8:	fb00 fe0e 	mul.w	lr, r0, lr
 8000cec:	45a6      	cmp	lr, r4
 8000cee:	d909      	bls.n	8000d04 <__udivmoddi4+0x8c>
 8000cf0:	193c      	adds	r4, r7, r4
 8000cf2:	f100 33ff 	add.w	r3, r0, #4294967295
 8000cf6:	f080 8105 	bcs.w	8000f04 <__udivmoddi4+0x28c>
 8000cfa:	45a6      	cmp	lr, r4
 8000cfc:	f240 8102 	bls.w	8000f04 <__udivmoddi4+0x28c>
 8000d00:	3802      	subs	r0, #2
 8000d02:	443c      	add	r4, r7
 8000d04:	ea40 4006 	orr.w	r0, r0, r6, lsl #16
 8000d08:	eba4 040e 	sub.w	r4, r4, lr
 8000d0c:	2600      	movs	r6, #0
 8000d0e:	b11d      	cbz	r5, 8000d18 <__udivmoddi4+0xa0>
 8000d10:	40d4      	lsrs	r4, r2
 8000d12:	2300      	movs	r3, #0
 8000d14:	e9c5 4300 	strd	r4, r3, [r5]
 8000d18:	4631      	mov	r1, r6
 8000d1a:	e8bd 87f0 	ldmia.w	sp!, {r4, r5, r6, r7, r8, r9, sl, pc}
 8000d1e:	b902      	cbnz	r2, 8000d22 <__udivmoddi4+0xaa>
 8000d20:	deff      	udf	#255	; 0xff
 8000d22:	fab2 f282 	clz	r2, r2
 8000d26:	2a00      	cmp	r2, #0
 8000d28:	d150      	bne.n	8000dcc <__udivmoddi4+0x154>
 8000d2a:	1bcb      	subs	r3, r1, r7
 8000d2c:	ea4f 4e17 	mov.w	lr, r7, lsr #16
 8000d30:	fa1f f887 	uxth.w	r8, r7
 8000d34:	2601      	movs	r6, #1
 8000d36:	fbb3 fcfe 	udiv	ip, r3, lr
 8000d3a:	0c21      	lsrs	r1, r4, #16
 8000d3c:	fb0e 331c 	mls	r3, lr, ip, r3
 8000d40:	ea41 4103 	orr.w	r1, r1, r3, lsl #16
 8000d44:	fb08 f30c 	mul.w	r3, r8, ip
 8000d48:	428b      	cmp	r3, r1
 8000d4a:	d907      	bls.n	8000d5c <__udivmoddi4+0xe4>
 8000d4c:	1879      	adds	r1, r7, r1
 8000d4e:	f10c 30ff 	add.w	r0, ip, #4294967295
 8000d52:	d202      	bcs.n	8000d5a <__udivmoddi4+0xe2>
 8000d54:	428b      	cmp	r3, r1
 8000d56:	f200 80e9 	bhi.w	8000f2c <__udivmoddi4+0x2b4>
 8000d5a:	4684      	mov	ip, r0
 8000d5c:	1ac9      	subs	r1, r1, r3
 8000d5e:	b2a3      	uxth	r3, r4
 8000d60:	fbb1 f0fe 	udiv	r0, r1, lr
 8000d64:	fb0e 1110 	mls	r1, lr, r0, r1
 8000d68:	ea43 4401 	orr.w	r4, r3, r1, lsl #16
 8000d6c:	fb08 f800 	mul.w	r8, r8, r0
 8000d70:	45a0      	cmp	r8, r4
 8000d72:	d907      	bls.n	8000d84 <__udivmoddi4+0x10c>
 8000d74:	193c      	adds	r4, r7, r4
 8000d76:	f100 33ff 	add.w	r3, r0, #4294967295
 8000d7a:	d202      	bcs.n	8000d82 <__udivmoddi4+0x10a>
 8000d7c:	45a0      	cmp	r8, r4
 8000d7e:	f200 80d9 	bhi.w	8000f34 <__udivmoddi4+0x2bc>
 8000d82:	4618      	mov	r0, r3
 8000d84:	eba4 0408 	sub.w	r4, r4, r8
 8000d88:	ea40 400c 	orr.w	r0, r0, ip, lsl #16
 8000d8c:	e7bf      	b.n	8000d0e <__udivmoddi4+0x96>
 8000d8e:	428b      	cmp	r3, r1
 8000d90:	d909      	bls.n	8000da6 <__udivmoddi4+0x12e>
 8000d92:	2d00      	cmp	r5, #0
 8000d94:	f000 80b1 	beq.w	8000efa <__udivmoddi4+0x282>
 8000d98:	2600      	movs	r6, #0
 8000d9a:	e9c5 0100 	strd	r0, r1, [r5]
 8000d9e:	4630      	mov	r0, r6
 8000da0:	4631      	mov	r1, r6
 8000da2:	e8bd 87f0 	ldmia.w	sp!, {r4, r5, r6, r7, r8, r9, sl, pc}
 8000da6:	fab3 f683 	clz	r6, r3
 8000daa:	2e00      	cmp	r6, #0
 8000dac:	d14a      	bne.n	8000e44 <__udivmoddi4+0x1cc>
 8000dae:	428b      	cmp	r3, r1
 8000db0:	d302      	bcc.n	8000db8 <__udivmoddi4+0x140>
 8000db2:	4282      	cmp	r2, r0
 8000db4:	f200 80b8 	bhi.w	8000f28 <__udivmoddi4+0x2b0>
 8000db8:	1a84      	subs	r4, r0, r2
 8000dba:	eb61 0103 	sbc.w	r1, r1, r3
 8000dbe:	2001      	movs	r0, #1
 8000dc0:	468c      	mov	ip, r1
 8000dc2:	2d00      	cmp	r5, #0
 8000dc4:	d0a8      	beq.n	8000d18 <__udivmoddi4+0xa0>
 8000dc6:	e9c5 4c00 	strd	r4, ip, [r5]
 8000dca:	e7a5      	b.n	8000d18 <__udivmoddi4+0xa0>
 8000dcc:	f1c2 0320 	rsb	r3, r2, #32
 8000dd0:	fa20 f603 	lsr.w	r6, r0, r3
 8000dd4:	4097      	lsls	r7, r2
 8000dd6:	fa01 f002 	lsl.w	r0, r1, r2
 8000dda:	ea4f 4e17 	mov.w	lr, r7, lsr #16
 8000dde:	40d9      	lsrs	r1, r3
 8000de0:	4330      	orrs	r0, r6
 8000de2:	0c03      	lsrs	r3, r0, #16
 8000de4:	fbb1 f6fe 	udiv	r6, r1, lr
 8000de8:	fa1f f887 	uxth.w	r8, r7
 8000dec:	fb0e 1116 	mls	r1, lr, r6, r1
 8000df0:	ea43 4301 	orr.w	r3, r3, r1, lsl #16
 8000df4:	fb06 f108 	mul.w	r1, r6, r8
 8000df8:	4299      	cmp	r1, r3
 8000dfa:	fa04 f402 	lsl.w	r4, r4, r2
 8000dfe:	d909      	bls.n	8000e14 <__udivmoddi4+0x19c>
 8000e00:	18fb      	adds	r3, r7, r3
 8000e02:	f106 3cff 	add.w	ip, r6, #4294967295
 8000e06:	f080 808d 	bcs.w	8000f24 <__udivmoddi4+0x2ac>
 8000e0a:	4299      	cmp	r1, r3
 8000e0c:	f240 808a 	bls.w	8000f24 <__udivmoddi4+0x2ac>
 8000e10:	3e02      	subs	r6, #2
 8000e12:	443b      	add	r3, r7
 8000e14:	1a5b      	subs	r3, r3, r1
 8000e16:	b281      	uxth	r1, r0
 8000e18:	fbb3 f0fe 	udiv	r0, r3, lr
 8000e1c:	fb0e 3310 	mls	r3, lr, r0, r3
 8000e20:	ea41 4103 	orr.w	r1, r1, r3, lsl #16
 8000e24:	fb00 f308 	mul.w	r3, r0, r8
 8000e28:	428b      	cmp	r3, r1
 8000e2a:	d907      	bls.n	8000e3c <__udivmoddi4+0x1c4>
 8000e2c:	1879      	adds	r1, r7, r1
 8000e2e:	f100 3cff 	add.w	ip, r0, #4294967295
 8000e32:	d273      	bcs.n	8000f1c <__udivmoddi4+0x2a4>
 8000e34:	428b      	cmp	r3, r1
 8000e36:	d971      	bls.n	8000f1c <__udivmoddi4+0x2a4>
 8000e38:	3802      	subs	r0, #2
 8000e3a:	4439      	add	r1, r7
 8000e3c:	1acb      	subs	r3, r1, r3
 8000e3e:	ea40 4606 	orr.w	r6, r0, r6, lsl #16
 8000e42:	e778      	b.n	8000d36 <__udivmoddi4+0xbe>
 8000e44:	f1c6 0c20 	rsb	ip, r6, #32
 8000e48:	fa03 f406 	lsl.w	r4, r3, r6
 8000e4c:	fa22 f30c 	lsr.w	r3, r2, ip
 8000e50:	431c      	orrs	r4, r3
 8000e52:	fa20 f70c 	lsr.w	r7, r0, ip
 8000e56:	fa01 f306 	lsl.w	r3, r1, r6
 8000e5a:	ea4f 4e14 	mov.w	lr, r4, lsr #16
 8000e5e:	fa21 f10c 	lsr.w	r1, r1, ip
 8000e62:	431f      	orrs	r7, r3
 8000e64:	0c3b      	lsrs	r3, r7, #16
 8000e66:	fbb1 f9fe 	udiv	r9, r1, lr
 8000e6a:	fa1f f884 	uxth.w	r8, r4
 8000e6e:	fb0e 1119 	mls	r1, lr, r9, r1
 8000e72:	ea43 4101 	orr.w	r1, r3, r1, lsl #16
 8000e76:	fb09 fa08 	mul.w	sl, r9, r8
 8000e7a:	458a      	cmp	sl, r1
 8000e7c:	fa02 f206 	lsl.w	r2, r2, r6
 8000e80:	fa00 f306 	lsl.w	r3, r0, r6
 8000e84:	d908      	bls.n	8000e98 <__udivmoddi4+0x220>
 8000e86:	1861      	adds	r1, r4, r1
 8000e88:	f109 30ff 	add.w	r0, r9, #4294967295
 8000e8c:	d248      	bcs.n	8000f20 <__udivmoddi4+0x2a8>
 8000e8e:	458a      	cmp	sl, r1
 8000e90:	d946      	bls.n	8000f20 <__udivmoddi4+0x2a8>
 8000e92:	f1a9 0902 	sub.w	r9, r9, #2
 8000e96:	4421      	add	r1, r4
 8000e98:	eba1 010a 	sub.w	r1, r1, sl
 8000e9c:	b2bf      	uxth	r7, r7
 8000e9e:	fbb1 f0fe 	udiv	r0, r1, lr
 8000ea2:	fb0e 1110 	mls	r1, lr, r0, r1
 8000ea6:	ea47 4701 	orr.w	r7, r7, r1, lsl #16
 8000eaa:	fb00 f808 	mul.w	r8, r0, r8
 8000eae:	45b8      	cmp	r8, r7
 8000eb0:	d907      	bls.n	8000ec2 <__udivmoddi4+0x24a>
 8000eb2:	19e7      	adds	r7, r4, r7
 8000eb4:	f100 31ff 	add.w	r1, r0, #4294967295
 8000eb8:	d22e      	bcs.n	8000f18 <__udivmoddi4+0x2a0>
 8000eba:	45b8      	cmp	r8, r7
 8000ebc:	d92c      	bls.n	8000f18 <__udivmoddi4+0x2a0>
 8000ebe:	3802      	subs	r0, #2
 8000ec0:	4427      	add	r7, r4
 8000ec2:	ea40 4009 	orr.w	r0, r0, r9, lsl #16
 8000ec6:	eba7 0708 	sub.w	r7, r7, r8
 8000eca:	fba0 8902 	umull	r8, r9, r0, r2
 8000ece:	454f      	cmp	r7, r9
 8000ed0:	46c6      	mov	lr, r8
 8000ed2:	4649      	mov	r1, r9
 8000ed4:	d31a      	bcc.n	8000f0c <__udivmoddi4+0x294>
 8000ed6:	d017      	beq.n	8000f08 <__udivmoddi4+0x290>
 8000ed8:	b15d      	cbz	r5, 8000ef2 <__udivmoddi4+0x27a>
 8000eda:	ebb3 020e 	subs.w	r2, r3, lr
 8000ede:	eb67 0701 	sbc.w	r7, r7, r1
 8000ee2:	fa07 fc0c 	lsl.w	ip, r7, ip
 8000ee6:	40f2      	lsrs	r2, r6
 8000ee8:	ea4c 0202 	orr.w	r2, ip, r2
 8000eec:	40f7      	lsrs	r7, r6
 8000eee:	e9c5 2700 	strd	r2, r7, [r5]
 8000ef2:	2600      	movs	r6, #0
 8000ef4:	4631      	mov	r1, r6
 8000ef6:	e8bd 87f0 	ldmia.w	sp!, {r4, r5, r6, r7, r8, r9, sl, pc}
 8000efa:	462e      	mov	r6, r5
 8000efc:	4628      	mov	r0, r5
 8000efe:	e70b      	b.n	8000d18 <__udivmoddi4+0xa0>
 8000f00:	4606      	mov	r6, r0
 8000f02:	e6e9      	b.n	8000cd8 <__udivmoddi4+0x60>
 8000f04:	4618      	mov	r0, r3
 8000f06:	e6fd      	b.n	8000d04 <__udivmoddi4+0x8c>
 8000f08:	4543      	cmp	r3, r8
 8000f0a:	d2e5      	bcs.n	8000ed8 <__udivmoddi4+0x260>
 8000f0c:	ebb8 0e02 	subs.w	lr, r8, r2
 8000f10:	eb69 0104 	sbc.w	r1, r9, r4
 8000f14:	3801      	subs	r0, #1
 8000f16:	e7df      	b.n	8000ed8 <__udivmoddi4+0x260>
 8000f18:	4608      	mov	r0, r1
 8000f1a:	e7d2      	b.n	8000ec2 <__udivmoddi4+0x24a>
 8000f1c:	4660      	mov	r0, ip
 8000f1e:	e78d      	b.n	8000e3c <__udivmoddi4+0x1c4>
 8000f20:	4681      	mov	r9, r0
 8000f22:	e7b9      	b.n	8000e98 <__udivmoddi4+0x220>
 8000f24:	4666      	mov	r6, ip
 8000f26:	e775      	b.n	8000e14 <__udivmoddi4+0x19c>
 8000f28:	4630      	mov	r0, r6
 8000f2a:	e74a      	b.n	8000dc2 <__udivmoddi4+0x14a>
 8000f2c:	f1ac 0c02 	sub.w	ip, ip, #2
 8000f30:	4439      	add	r1, r7
 8000f32:	e713      	b.n	8000d5c <__udivmoddi4+0xe4>
 8000f34:	3802      	subs	r0, #2
 8000f36:	443c      	add	r4, r7
 8000f38:	e724      	b.n	8000d84 <__udivmoddi4+0x10c>
 8000f3a:	bf00      	nop

08000f3c <__aeabi_idiv0>:
 8000f3c:	4770      	bx	lr
 8000f3e:	bf00      	nop

08000f40 <SystemClock_Config>:
 8000f40:	b510      	push	{r4, lr}
 8000f42:	b094      	sub	sp, #80	; 0x50
 8000f44:	2210      	movs	r2, #16
 8000f46:	2100      	movs	r1, #0
 8000f48:	a80a      	add	r0, sp, #40	; 0x28
 8000f4a:	f001 ff59 	bl	8002e00 <memset>
 8000f4e:	2214      	movs	r2, #20
 8000f50:	2100      	movs	r1, #0
 8000f52:	a803      	add	r0, sp, #12
 8000f54:	f001 ff54 	bl	8002e00 <memset>
 8000f58:	4b1f      	ldr	r3, [pc, #124]	; (8000fd8 <SystemClock_Config+0x98>)
 8000f5a:	2100      	movs	r1, #0
 8000f5c:	9101      	str	r1, [sp, #4]
 8000f5e:	6c1a      	ldr	r2, [r3, #64]	; 0x40
 8000f60:	f042 5280 	orr.w	r2, r2, #268435456	; 0x10000000
 8000f64:	641a      	str	r2, [r3, #64]	; 0x40
 8000f66:	6c1b      	ldr	r3, [r3, #64]	; 0x40
 8000f68:	f003 5380 	and.w	r3, r3, #268435456	; 0x10000000
 8000f6c:	9301      	str	r3, [sp, #4]
 8000f6e:	9b01      	ldr	r3, [sp, #4]
 8000f70:	4b1a      	ldr	r3, [pc, #104]	; (8000fdc <SystemClock_Config+0x9c>)
 8000f72:	9102      	str	r1, [sp, #8]
 8000f74:	681a      	ldr	r2, [r3, #0]
 8000f76:	f442 4280 	orr.w	r2, r2, #16384	; 0x4000
 8000f7a:	601a      	str	r2, [r3, #0]
 8000f7c:	681b      	ldr	r3, [r3, #0]
 8000f7e:	f403 4380 	and.w	r3, r3, #16384	; 0x4000
 8000f82:	9302      	str	r3, [sp, #8]
 8000f84:	9b02      	ldr	r3, [sp, #8]
 8000f86:	2101      	movs	r1, #1
 8000f88:	f44f 3380 	mov.w	r3, #65536	; 0x10000
 8000f8c:	2402      	movs	r4, #2
 8000f8e:	e9cd 1308 	strd	r1, r3, [sp, #32]
 8000f92:	f44f 0380 	mov.w	r3, #4194304	; 0x400000
 8000f96:	e9cd 430e 	strd	r4, r3, [sp, #56]	; 0x38
 8000f9a:	22a8      	movs	r2, #168	; 0xa8
 8000f9c:	2304      	movs	r3, #4
 8000f9e:	a808      	add	r0, sp, #32
 8000fa0:	e9cd 3210 	strd	r3, r2, [sp, #64]	; 0x40
 8000fa4:	e9cd 4312 	strd	r4, r3, [sp, #72]	; 0x48
 8000fa8:	f001 fb52 	bl	8002650 <HAL_RCC_OscConfig>
 8000fac:	b108      	cbz	r0, 8000fb2 <SystemClock_Config+0x72>
 8000fae:	b672      	cpsid	i
 8000fb0:	e7fe      	b.n	8000fb0 <SystemClock_Config+0x70>
 8000fb2:	230f      	movs	r3, #15
 8000fb4:	e9cd 3403 	strd	r3, r4, [sp, #12]
 8000fb8:	9005      	str	r0, [sp, #20]
 8000fba:	f44f 52a0 	mov.w	r2, #5120	; 0x1400
 8000fbe:	f44f 5380 	mov.w	r3, #4096	; 0x1000
 8000fc2:	2105      	movs	r1, #5
 8000fc4:	a803      	add	r0, sp, #12
 8000fc6:	e9cd 2306 	strd	r2, r3, [sp, #24]
 8000fca:	f001 fd1b 	bl	8002a04 <HAL_RCC_ClockConfig>
 8000fce:	b108      	cbz	r0, 8000fd4 <SystemClock_Config+0x94>
 8000fd0:	b672      	cpsid	i
 8000fd2:	e7fe      	b.n	8000fd2 <SystemClock_Config+0x92>
 8000fd4:	b014      	add	sp, #80	; 0x50
 8000fd6:	bd10      	pop	{r4, pc}
 8000fd8:	40023800 	.word	0x40023800
 8000fdc:	40007000 	.word	0x40007000

08000fe0 <main>:
 8000fe0:	b580      	push	{r7, lr}
 8000fe2:	b0ac      	sub	sp, #176	; 0xb0
 8000fe4:	4c90      	ldr	r4, [pc, #576]	; (8001228 <main+0x248>)
 8000fe6:	4d91      	ldr	r5, [pc, #580]	; (800122c <main+0x24c>)
 8000fe8:	f000 fd70 	bl	8001acc <HAL_Init>
 8000fec:	f7ff ffa8 	bl	8000f40 <SystemClock_Config>
 8000ff0:	2300      	movs	r3, #0
 8000ff2:	9323      	str	r3, [sp, #140]	; 0x8c
 8000ff4:	6b22      	ldr	r2, [r4, #48]	; 0x30
 8000ff6:	488e      	ldr	r0, [pc, #568]	; (8001230 <main+0x250>)
 8000ff8:	f042 0280 	orr.w	r2, r2, #128	; 0x80
 8000ffc:	6322      	str	r2, [r4, #48]	; 0x30
 8000ffe:	6b22      	ldr	r2, [r4, #48]	; 0x30
 8001000:	f002 0280 	and.w	r2, r2, #128	; 0x80
 8001004:	9223      	str	r2, [sp, #140]	; 0x8c
 8001006:	9a23      	ldr	r2, [sp, #140]	; 0x8c
 8001008:	9324      	str	r3, [sp, #144]	; 0x90
 800100a:	6b22      	ldr	r2, [r4, #48]	; 0x30
 800100c:	f042 0204 	orr.w	r2, r2, #4
 8001010:	6322      	str	r2, [r4, #48]	; 0x30
 8001012:	6b22      	ldr	r2, [r4, #48]	; 0x30
 8001014:	f002 0204 	and.w	r2, r2, #4
 8001018:	9224      	str	r2, [sp, #144]	; 0x90
 800101a:	9a24      	ldr	r2, [sp, #144]	; 0x90
 800101c:	9325      	str	r3, [sp, #148]	; 0x94
 800101e:	6b22      	ldr	r2, [r4, #48]	; 0x30
 8001020:	f042 0201 	orr.w	r2, r2, #1
 8001024:	6322      	str	r2, [r4, #48]	; 0x30
 8001026:	6b22      	ldr	r2, [r4, #48]	; 0x30
 8001028:	f002 0201 	and.w	r2, r2, #1
 800102c:	9225      	str	r2, [sp, #148]	; 0x94
 800102e:	9a25      	ldr	r2, [sp, #148]	; 0x94
 8001030:	9326      	str	r3, [sp, #152]	; 0x98
 8001032:	6b22      	ldr	r2, [r4, #48]	; 0x30
 8001034:	f042 0202 	orr.w	r2, r2, #2
 8001038:	6322      	str	r2, [r4, #48]	; 0x30
 800103a:	6b22      	ldr	r2, [r4, #48]	; 0x30
 800103c:	f002 0202 	and.w	r2, r2, #2
 8001040:	9226      	str	r2, [sp, #152]	; 0x98
 8001042:	9a26      	ldr	r2, [sp, #152]	; 0x98
 8001044:	9327      	str	r3, [sp, #156]	; 0x9c
 8001046:	6b22      	ldr	r2, [r4, #48]	; 0x30
 8001048:	f042 0208 	orr.w	r2, r2, #8
 800104c:	6322      	str	r2, [r4, #48]	; 0x30
 800104e:	6b22      	ldr	r2, [r4, #48]	; 0x30
 8001050:	f002 0208 	and.w	r2, r2, #8
 8001054:	9227      	str	r2, [sp, #156]	; 0x9c
 8001056:	9a27      	ldr	r2, [sp, #156]	; 0x9c
 8001058:	f44f 5216 	mov.w	r2, #9600	; 0x2580
 800105c:	e9c0 5200 	strd	r5, r2, [r0]
 8001060:	220c      	movs	r2, #12
 8001062:	e9c0 3302 	strd	r3, r3, [r0, #8]
 8001066:	e9c0 2305 	strd	r2, r3, [r0, #20]
 800106a:	6103      	str	r3, [r0, #16]
 800106c:	61c3      	str	r3, [r0, #28]
 800106e:	f001 fe19 	bl	8002ca4 <HAL_UART_Init>
 8001072:	4605      	mov	r5, r0
 8001074:	b108      	cbz	r0, 800107a <main+0x9a>
 8001076:	b672      	cpsid	i
 8001078:	e7fe      	b.n	8001078 <main+0x98>
 800107a:	9022      	str	r0, [sp, #136]	; 0x88
 800107c:	6b23      	ldr	r3, [r4, #48]	; 0x30
 800107e:	f443 0380 	orr.w	r3, r3, #4194304	; 0x400000
 8001082:	6323      	str	r3, [r4, #48]	; 0x30
 8001084:	6b23      	ldr	r3, [r4, #48]	; 0x30
 8001086:	4c6b      	ldr	r4, [pc, #428]	; (8001234 <main+0x254>)
 8001088:	f403 0380 	and.w	r3, r3, #4194304	; 0x400000
 800108c:	4602      	mov	r2, r0
 800108e:	4601      	mov	r1, r0
 8001090:	9322      	str	r3, [sp, #136]	; 0x88
 8001092:	2038      	movs	r0, #56	; 0x38
 8001094:	9b22      	ldr	r3, [sp, #136]	; 0x88
 8001096:	2710      	movs	r7, #16
 8001098:	f001 f81c 	bl	80020d4 <HAL_NVIC_SetPriority>
 800109c:	2038      	movs	r0, #56	; 0x38
 800109e:	f001 f84b 	bl	8002138 <HAL_NVIC_EnableIRQ>
 80010a2:	4629      	mov	r1, r5
 80010a4:	463a      	mov	r2, r7
 80010a6:	a828      	add	r0, sp, #160	; 0xa0
 80010a8:	f001 feaa 	bl	8002e00 <memset>
 80010ac:	4962      	ldr	r1, [pc, #392]	; (8001238 <main+0x258>)
 80010ae:	60a5      	str	r5, [r4, #8]
 80010b0:	f44f 3380 	mov.w	r3, #65536	; 0x10000
 80010b4:	2601      	movs	r6, #1
 80010b6:	e9c4 1300 	strd	r1, r3, [r4]
 80010ba:	4620      	mov	r0, r4
 80010bc:	4b5f      	ldr	r3, [pc, #380]	; (800123c <main+0x25c>)
 80010be:	6126      	str	r6, [r4, #16]
 80010c0:	7626      	strb	r6, [r4, #24]
 80010c2:	f884 5020 	strb.w	r5, [r4, #32]
 80010c6:	62e5      	str	r5, [r4, #44]	; 0x2c
 80010c8:	62a3      	str	r3, [r4, #40]	; 0x28
 80010ca:	60e5      	str	r5, [r4, #12]
 80010cc:	61e7      	str	r7, [r4, #28]
 80010ce:	f884 6030 	strb.w	r6, [r4, #48]	; 0x30
 80010d2:	6166      	str	r6, [r4, #20]
 80010d4:	f000 fd3a 	bl	8001b4c <HAL_ADC_Init>
 80010d8:	b108      	cbz	r0, 80010de <main+0xfe>
 80010da:	b672      	cpsid	i
 80010dc:	e7fe      	b.n	80010dc <main+0xfc>
 80010de:	2311      	movs	r3, #17
 80010e0:	2506      	movs	r5, #6
 80010e2:	a928      	add	r1, sp, #160	; 0xa0
 80010e4:	4620      	mov	r0, r4
 80010e6:	e9cd 3628 	strd	r3, r6, [sp, #160]	; 0xa0
 80010ea:	952a      	str	r5, [sp, #168]	; 0xa8
 80010ec:	f000 ff4e 	bl	8001f8c <HAL_ADC_ConfigChannel>
 80010f0:	b108      	cbz	r0, 80010f6 <main+0x116>
 80010f2:	b672      	cpsid	i
 80010f4:	e7fe      	b.n	80010f4 <main+0x114>
 80010f6:	9028      	str	r0, [sp, #160]	; 0xa0
 80010f8:	2702      	movs	r7, #2
 80010fa:	a928      	add	r1, sp, #160	; 0xa0
 80010fc:	4620      	mov	r0, r4
 80010fe:	9729      	str	r7, [sp, #164]	; 0xa4
 8001100:	f000 ff44 	bl	8001f8c <HAL_ADC_ConfigChannel>
 8001104:	b108      	cbz	r0, 800110a <main+0x12a>
 8001106:	b672      	cpsid	i
 8001108:	e7fe      	b.n	8001108 <main+0x128>
 800110a:	9628      	str	r6, [sp, #160]	; 0xa0
 800110c:	a928      	add	r1, sp, #160	; 0xa0
 800110e:	2603      	movs	r6, #3
 8001110:	4620      	mov	r0, r4
 8001112:	9629      	str	r6, [sp, #164]	; 0xa4
 8001114:	f000 ff3a 	bl	8001f8c <HAL_ADC_ConfigChannel>
 8001118:	b108      	cbz	r0, 800111e <main+0x13e>
 800111a:	b672      	cpsid	i
 800111c:	e7fe      	b.n	800111c <main+0x13c>
 800111e:	9728      	str	r7, [sp, #160]	; 0xa0
 8001120:	a928      	add	r1, sp, #160	; 0xa0
 8001122:	2704      	movs	r7, #4
 8001124:	4620      	mov	r0, r4
 8001126:	9729      	str	r7, [sp, #164]	; 0xa4
 8001128:	f000 ff30 	bl	8001f8c <HAL_ADC_ConfigChannel>
 800112c:	b108      	cbz	r0, 8001132 <main+0x152>
 800112e:	b672      	cpsid	i
 8001130:	e7fe      	b.n	8001130 <main+0x150>
 8001132:	9628      	str	r6, [sp, #160]	; 0xa0
 8001134:	a928      	add	r1, sp, #160	; 0xa0
 8001136:	2605      	movs	r6, #5
 8001138:	4620      	mov	r0, r4
 800113a:	9629      	str	r6, [sp, #164]	; 0xa4
 800113c:	f000 ff26 	bl	8001f8c <HAL_ADC_ConfigChannel>
 8001140:	b108      	cbz	r0, 8001146 <main+0x166>
 8001142:	b672      	cpsid	i
 8001144:	e7fe      	b.n	8001144 <main+0x164>
 8001146:	a928      	add	r1, sp, #160	; 0xa0
 8001148:	4620      	mov	r0, r4
 800114a:	e9cd 7528 	strd	r7, r5, [sp, #160]	; 0xa0
 800114e:	f000 ff1d 	bl	8001f8c <HAL_ADC_ConfigChannel>
 8001152:	b108      	cbz	r0, 8001158 <main+0x178>
 8001154:	b672      	cpsid	i
 8001156:	e7fe      	b.n	8001156 <main+0x176>
 8001158:	2307      	movs	r3, #7
 800115a:	a928      	add	r1, sp, #160	; 0xa0
 800115c:	4620      	mov	r0, r4
 800115e:	9628      	str	r6, [sp, #160]	; 0xa0
 8001160:	9329      	str	r3, [sp, #164]	; 0xa4
 8001162:	f000 ff13 	bl	8001f8c <HAL_ADC_ConfigChannel>
 8001166:	b108      	cbz	r0, 800116c <main+0x18c>
 8001168:	b672      	cpsid	i
 800116a:	e7fe      	b.n	800116a <main+0x18a>
 800116c:	2308      	movs	r3, #8
 800116e:	a928      	add	r1, sp, #160	; 0xa0
 8001170:	4620      	mov	r0, r4
 8001172:	9528      	str	r5, [sp, #160]	; 0xa0
 8001174:	9329      	str	r3, [sp, #164]	; 0xa4
 8001176:	f000 ff09 	bl	8001f8c <HAL_ADC_ConfigChannel>
 800117a:	b108      	cbz	r0, 8001180 <main+0x1a0>
 800117c:	b672      	cpsid	i
 800117e:	e7fe      	b.n	800117e <main+0x19e>
 8001180:	2307      	movs	r3, #7
 8001182:	2509      	movs	r5, #9
 8001184:	482b      	ldr	r0, [pc, #172]	; (8001234 <main+0x254>)
 8001186:	a928      	add	r1, sp, #160	; 0xa0
 8001188:	e9cd 3528 	strd	r3, r5, [sp, #160]	; 0xa0
 800118c:	f000 fefe 	bl	8001f8c <HAL_ADC_ConfigChannel>
 8001190:	b108      	cbz	r0, 8001196 <main+0x1b6>
 8001192:	b672      	cpsid	i
 8001194:	e7fe      	b.n	8001194 <main+0x1b4>
 8001196:	2308      	movs	r3, #8
 8001198:	240a      	movs	r4, #10
 800119a:	4826      	ldr	r0, [pc, #152]	; (8001234 <main+0x254>)
 800119c:	a928      	add	r1, sp, #160	; 0xa0
 800119e:	e9cd 3428 	strd	r3, r4, [sp, #160]	; 0xa0
 80011a2:	f000 fef3 	bl	8001f8c <HAL_ADC_ConfigChannel>
 80011a6:	b108      	cbz	r0, 80011ac <main+0x1cc>
 80011a8:	b672      	cpsid	i
 80011aa:	e7fe      	b.n	80011aa <main+0x1ca>
 80011ac:	9528      	str	r5, [sp, #160]	; 0xa0
 80011ae:	4821      	ldr	r0, [pc, #132]	; (8001234 <main+0x254>)
 80011b0:	250b      	movs	r5, #11
 80011b2:	a928      	add	r1, sp, #160	; 0xa0
 80011b4:	9529      	str	r5, [sp, #164]	; 0xa4
 80011b6:	f000 fee9 	bl	8001f8c <HAL_ADC_ConfigChannel>
 80011ba:	b108      	cbz	r0, 80011c0 <main+0x1e0>
 80011bc:	b672      	cpsid	i
 80011be:	e7fe      	b.n	80011be <main+0x1de>
 80011c0:	9428      	str	r4, [sp, #160]	; 0xa0
 80011c2:	481c      	ldr	r0, [pc, #112]	; (8001234 <main+0x254>)
 80011c4:	240c      	movs	r4, #12
 80011c6:	a928      	add	r1, sp, #160	; 0xa0
 80011c8:	9429      	str	r4, [sp, #164]	; 0xa4
 80011ca:	f000 fedf 	bl	8001f8c <HAL_ADC_ConfigChannel>
 80011ce:	b108      	cbz	r0, 80011d4 <main+0x1f4>
 80011d0:	b672      	cpsid	i
 80011d2:	e7fe      	b.n	80011d2 <main+0x1f2>
 80011d4:	9528      	str	r5, [sp, #160]	; 0xa0
 80011d6:	4817      	ldr	r0, [pc, #92]	; (8001234 <main+0x254>)
 80011d8:	250d      	movs	r5, #13
 80011da:	a928      	add	r1, sp, #160	; 0xa0
 80011dc:	9529      	str	r5, [sp, #164]	; 0xa4
 80011de:	f000 fed5 	bl	8001f8c <HAL_ADC_ConfigChannel>
 80011e2:	b108      	cbz	r0, 80011e8 <main+0x208>
 80011e4:	b672      	cpsid	i
 80011e6:	e7fe      	b.n	80011e6 <main+0x206>
 80011e8:	9428      	str	r4, [sp, #160]	; 0xa0
 80011ea:	4812      	ldr	r0, [pc, #72]	; (8001234 <main+0x254>)
 80011ec:	240e      	movs	r4, #14
 80011ee:	a928      	add	r1, sp, #160	; 0xa0
 80011f0:	9429      	str	r4, [sp, #164]	; 0xa4
 80011f2:	f000 fecb 	bl	8001f8c <HAL_ADC_ConfigChannel>
 80011f6:	b108      	cbz	r0, 80011fc <main+0x21c>
 80011f8:	b672      	cpsid	i
 80011fa:	e7fe      	b.n	80011fa <main+0x21a>
 80011fc:	270f      	movs	r7, #15
 80011fe:	480d      	ldr	r0, [pc, #52]	; (8001234 <main+0x254>)
 8001200:	9528      	str	r5, [sp, #160]	; 0xa0
 8001202:	a928      	add	r1, sp, #160	; 0xa0
 8001204:	9729      	str	r7, [sp, #164]	; 0xa4
 8001206:	f000 fec1 	bl	8001f8c <HAL_ADC_ConfigChannel>
 800120a:	b108      	cbz	r0, 8001210 <main+0x230>
 800120c:	b672      	cpsid	i
 800120e:	e7fe      	b.n	800120e <main+0x22e>
 8001210:	9428      	str	r4, [sp, #160]	; 0xa0
 8001212:	4808      	ldr	r0, [pc, #32]	; (8001234 <main+0x254>)
 8001214:	2410      	movs	r4, #16
 8001216:	a928      	add	r1, sp, #160	; 0xa0
 8001218:	9429      	str	r4, [sp, #164]	; 0xa4
 800121a:	f000 feb7 	bl	8001f8c <HAL_ADC_ConfigChannel>
 800121e:	4605      	mov	r5, r0
 8001220:	b170      	cbz	r0, 8001240 <main+0x260>
 8001222:	b672      	cpsid	i
 8001224:	e7fe      	b.n	8001224 <main+0x244>
 8001226:	bf00      	nop
 8001228:	40023800 	.word	0x40023800
 800122c:	40004400 	.word	0x40004400
 8001230:	20000400 	.word	0x20000400
 8001234:	20000314 	.word	0x20000314
 8001238:	40012000 	.word	0x40012000
 800123c:	0f000001 	.word	0x0f000001
 8001240:	4622      	mov	r2, r4
 8001242:	4601      	mov	r1, r0
 8001244:	a828      	add	r0, sp, #160	; 0xa0
 8001246:	f001 fddb 	bl	8002e00 <memset>
 800124a:	4c12      	ldr	r4, [pc, #72]	; (8001294 <main+0x2b4>)
 800124c:	4a12      	ldr	r2, [pc, #72]	; (8001298 <main+0x2b8>)
 800124e:	60a5      	str	r5, [r4, #8]
 8001250:	f44f 3380 	mov.w	r3, #65536	; 0x10000
 8001254:	2601      	movs	r6, #1
 8001256:	e9c4 2300 	strd	r2, r3, [r4]
 800125a:	4620      	mov	r0, r4
 800125c:	4b0f      	ldr	r3, [pc, #60]	; (800129c <main+0x2bc>)
 800125e:	6126      	str	r6, [r4, #16]
 8001260:	7626      	strb	r6, [r4, #24]
 8001262:	f884 5020 	strb.w	r5, [r4, #32]
 8001266:	62e5      	str	r5, [r4, #44]	; 0x2c
 8001268:	62a3      	str	r3, [r4, #40]	; 0x28
 800126a:	60e5      	str	r5, [r4, #12]
 800126c:	61e6      	str	r6, [r4, #28]
 800126e:	f884 5030 	strb.w	r5, [r4, #48]	; 0x30
 8001272:	6166      	str	r6, [r4, #20]
 8001274:	f000 fc6a 	bl	8001b4c <HAL_ADC_Init>
 8001278:	b108      	cbz	r0, 800127e <main+0x29e>
 800127a:	b672      	cpsid	i
 800127c:	e7fe      	b.n	800127c <main+0x29c>
 800127e:	2306      	movs	r3, #6
 8001280:	a928      	add	r1, sp, #160	; 0xa0
 8001282:	4620      	mov	r0, r4
 8001284:	e9cd 7628 	strd	r7, r6, [sp, #160]	; 0xa0
 8001288:	932a      	str	r3, [sp, #168]	; 0xa8
 800128a:	f000 fe7f 	bl	8001f8c <HAL_ADC_ConfigChannel>
 800128e:	b138      	cbz	r0, 80012a0 <main+0x2c0>
 8001290:	b672      	cpsid	i
 8001292:	e7fe      	b.n	8001292 <main+0x2b2>
 8001294:	20000268 	.word	0x20000268
 8001298:	40012100 	.word	0x40012100
 800129c:	0f000001 	.word	0x0f000001
 80012a0:	49d9      	ldr	r1, [pc, #868]	; (8001608 <main+0x628>)
 80012a2:	48da      	ldr	r0, [pc, #872]	; (800160c <main+0x62c>)
 80012a4:	2210      	movs	r2, #16
 80012a6:	f000 fd7b 	bl	8001da0 <HAL_ADC_Start_DMA>
 80012aa:	48d9      	ldr	r0, [pc, #868]	; (8001610 <main+0x630>)
 80012ac:	f000 fcf4 	bl	8001c98 <HAL_ADC_Start>
 80012b0:	a7b7      	add	r7, pc, #732	; (adr r7, 8001590 <main+0x5b0>)
 80012b2:	e9d7 6700 	ldrd	r6, r7, [r7]
 80012b6:	48d6      	ldr	r0, [pc, #856]	; (8001610 <main+0x630>)
 80012b8:	f8df 836c 	ldr.w	r8, [pc, #876]	; 8001628 <main+0x648>
 80012bc:	f000 fe1a 	bl	8001ef4 <HAL_ADC_GetValue>
 80012c0:	4bd1      	ldr	r3, [pc, #836]	; (8001608 <main+0x628>)
 80012c2:	eddf 6ad4 	vldr	s13, [pc, #848]	; 8001614 <main+0x634>
 80012c6:	881a      	ldrh	r2, [r3, #0]
 80012c8:	8418      	strh	r0, [r3, #32]
 80012ca:	ee07 2a10 	vmov	s14, r2
 80012ce:	4ad2      	ldr	r2, [pc, #840]	; (8001618 <main+0x638>)
 80012d0:	eeb8 7a47 	vcvt.f32.u32	s14, s14
 80012d4:	2501      	movs	r5, #1
 80012d6:	ed82 7a00 	vstr	s14, [r2]
 80012da:	4ad0      	ldr	r2, [pc, #832]	; (800161c <main+0x63c>)
 80012dc:	8812      	ldrh	r2, [r2, #0]
 80012de:	ee07 2a90 	vmov	s15, r2
 80012e2:	eef8 7ae7 	vcvt.f32.s32	s15, s15
 80012e6:	4ace      	ldr	r2, [pc, #824]	; (8001620 <main+0x640>)
 80012e8:	ee67 7aa6 	vmul.f32	s15, s15, s13
 80012ec:	4644      	mov	r4, r8
 80012ee:	eec7 6a87 	vdiv.f32	s13, s15, s14
 80012f2:	edc2 6a00 	vstr	s13, [r2]
 80012f6:	4642      	mov	r2, r8
 80012f8:	f833 1015 	ldrh.w	r1, [r3, r5, lsl #1]
 80012fc:	ee07 1a90 	vmov	s15, r1
 8001300:	3501      	adds	r5, #1
 8001302:	eef8 7a67 	vcvt.f32.u32	s15, s15
 8001306:	2d11      	cmp	r5, #17
 8001308:	ece2 7a01 	vstmia	r2!, {s15}
 800130c:	d1f4      	bne.n	80012f8 <main+0x318>
 800130e:	f8df a340 	ldr.w	sl, [pc, #832]	; 8001650 <main+0x670>
 8001312:	4ac4      	ldr	r2, [pc, #784]	; (8001624 <main+0x644>)
 8001314:	4bc4      	ldr	r3, [pc, #784]	; (8001628 <main+0x648>)
 8001316:	ed9f 7ac5 	vldr	s14, [pc, #788]	; 800162c <main+0x64c>
 800131a:	3d01      	subs	r5, #1
 800131c:	f040 8201 	bne.w	8001722 <main+0x742>
 8001320:	edd4 7a00 	vldr	s15, [r4]
 8001324:	eddf 8ac2 	vldr	s17, [pc, #776]	; 8001630 <main+0x650>
 8001328:	ed9f 8ac2 	vldr	s16, [pc, #776]	; 8001634 <main+0x654>
 800132c:	ee77 7aa7 	vadd.f32	s15, s15, s15
 8001330:	ee17 0a90 	vmov	r0, s15
 8001334:	f7ff f908 	bl	8000548 <__aeabi_f2d>
 8001338:	a397      	add	r3, pc, #604	; (adr r3, 8001598 <main+0x5b8>)
 800133a:	e9d3 2300 	ldrd	r2, r3, [r3]
 800133e:	f7ff f95b 	bl	80005f8 <__aeabi_dmul>
 8001342:	f7ff fc31 	bl	8000ba8 <__aeabi_d2f>
 8001346:	edd4 7a01 	vldr	s15, [r4, #4]
 800134a:	ed9f 7abb 	vldr	s14, [pc, #748]	; 8001638 <main+0x658>
 800134e:	6020      	str	r0, [r4, #0]
 8001350:	ee67 7a87 	vmul.f32	s15, s15, s14
 8001354:	ed9f 7ab9 	vldr	s14, [pc, #740]	; 800163c <main+0x65c>
 8001358:	eec7 7a87 	vdiv.f32	s15, s15, s14
 800135c:	ee17 0a90 	vmov	r0, s15
 8001360:	f7ff f8f2 	bl	8000548 <__aeabi_f2d>
 8001364:	a38e      	add	r3, pc, #568	; (adr r3, 80015a0 <main+0x5c0>)
 8001366:	e9d3 2300 	ldrd	r2, r3, [r3]
 800136a:	f7ff f945 	bl	80005f8 <__aeabi_dmul>
 800136e:	f7ff fc1b 	bl	8000ba8 <__aeabi_d2f>
 8001372:	ed94 7a02 	vldr	s14, [r4, #8]
 8001376:	6060      	str	r0, [r4, #4]
 8001378:	ee27 7a28 	vmul.f32	s14, s14, s17
 800137c:	eec7 7a08 	vdiv.f32	s15, s14, s16
 8001380:	ee17 0a90 	vmov	r0, s15
 8001384:	f7ff f8e0 	bl	8000548 <__aeabi_f2d>
 8001388:	4632      	mov	r2, r6
 800138a:	463b      	mov	r3, r7
 800138c:	f7ff f934 	bl	80005f8 <__aeabi_dmul>
 8001390:	f7ff fc0a 	bl	8000ba8 <__aeabi_d2f>
 8001394:	edd4 7a03 	vldr	s15, [r4, #12]
 8001398:	60a0      	str	r0, [r4, #8]
 800139a:	ee67 7aa8 	vmul.f32	s15, s15, s17
 800139e:	eddf 8aa8 	vldr	s17, [pc, #672]	; 8001640 <main+0x660>
 80013a2:	eec7 7a88 	vdiv.f32	s15, s15, s16
 80013a6:	ed9f 8aa7 	vldr	s16, [pc, #668]	; 8001644 <main+0x664>
 80013aa:	ee17 0a90 	vmov	r0, s15
 80013ae:	f7ff f8cb 	bl	8000548 <__aeabi_f2d>
 80013b2:	a37d      	add	r3, pc, #500	; (adr r3, 80015a8 <main+0x5c8>)
 80013b4:	e9d3 2300 	ldrd	r2, r3, [r3]
 80013b8:	f7ff f91e 	bl	80005f8 <__aeabi_dmul>
 80013bc:	f7ff fbf4 	bl	8000ba8 <__aeabi_d2f>
 80013c0:	ed94 7a04 	vldr	s14, [r4, #16]
 80013c4:	60e0      	str	r0, [r4, #12]
 80013c6:	ee27 7a28 	vmul.f32	s14, s14, s17
 80013ca:	eec7 7a08 	vdiv.f32	s15, s14, s16
 80013ce:	ed9f 7a9e 	vldr	s14, [pc, #632]	; 8001648 <main+0x668>
 80013d2:	ee67 7a87 	vmul.f32	s15, s15, s14
 80013d6:	edc4 7a04 	vstr	s15, [r4, #16]
 80013da:	edd4 7a05 	vldr	s15, [r4, #20]
 80013de:	ee67 7aa8 	vmul.f32	s15, s15, s17
 80013e2:	eec7 7a88 	vdiv.f32	s15, s15, s16
 80013e6:	ee17 0a90 	vmov	r0, s15
 80013ea:	f7ff f8ad 	bl	8000548 <__aeabi_f2d>
 80013ee:	a370      	add	r3, pc, #448	; (adr r3, 80015b0 <main+0x5d0>)
 80013f0:	e9d3 2300 	ldrd	r2, r3, [r3]
 80013f4:	f7ff f900 	bl	80005f8 <__aeabi_dmul>
 80013f8:	f7ff fbd6 	bl	8000ba8 <__aeabi_d2f>
 80013fc:	edd4 7a06 	vldr	s15, [r4, #24]
 8001400:	6160      	str	r0, [r4, #20]
 8001402:	ee67 7aa8 	vmul.f32	s15, s15, s17
 8001406:	eec7 7a88 	vdiv.f32	s15, s15, s16
 800140a:	ee17 0a90 	vmov	r0, s15
 800140e:	f7ff f89b 	bl	8000548 <__aeabi_f2d>
 8001412:	a369      	add	r3, pc, #420	; (adr r3, 80015b8 <main+0x5d8>)
 8001414:	e9d3 2300 	ldrd	r2, r3, [r3]
 8001418:	f7ff f8ee 	bl	80005f8 <__aeabi_dmul>
 800141c:	f7ff fbc4 	bl	8000ba8 <__aeabi_d2f>
 8001420:	edd4 7a07 	vldr	s15, [r4, #28]
 8001424:	61a0      	str	r0, [r4, #24]
 8001426:	ee67 7aa8 	vmul.f32	s15, s15, s17
 800142a:	eec7 7a88 	vdiv.f32	s15, s15, s16
 800142e:	ee17 0a90 	vmov	r0, s15
 8001432:	f7ff f889 	bl	8000548 <__aeabi_f2d>
 8001436:	a362      	add	r3, pc, #392	; (adr r3, 80015c0 <main+0x5e0>)
 8001438:	e9d3 2300 	ldrd	r2, r3, [r3]
 800143c:	f7ff f8dc 	bl	80005f8 <__aeabi_dmul>
 8001440:	f7ff fbb2 	bl	8000ba8 <__aeabi_d2f>
 8001444:	edd4 7a08 	vldr	s15, [r4, #32]
 8001448:	61e0      	str	r0, [r4, #28]
 800144a:	ee67 7aa8 	vmul.f32	s15, s15, s17
 800144e:	eec7 7a88 	vdiv.f32	s15, s15, s16
 8001452:	ee17 0a90 	vmov	r0, s15
 8001456:	f7ff f877 	bl	8000548 <__aeabi_f2d>
 800145a:	a35b      	add	r3, pc, #364	; (adr r3, 80015c8 <main+0x5e8>)
 800145c:	e9d3 2300 	ldrd	r2, r3, [r3]
 8001460:	f7ff f8ca 	bl	80005f8 <__aeabi_dmul>
 8001464:	f7ff fba0 	bl	8000ba8 <__aeabi_d2f>
 8001468:	edd4 7a09 	vldr	s15, [r4, #36]	; 0x24
 800146c:	6220      	str	r0, [r4, #32]
 800146e:	ee67 7aa8 	vmul.f32	s15, s15, s17
 8001472:	eec7 7a88 	vdiv.f32	s15, s15, s16
 8001476:	ee17 0a90 	vmov	r0, s15
 800147a:	f7ff f865 	bl	8000548 <__aeabi_f2d>
 800147e:	a354      	add	r3, pc, #336	; (adr r3, 80015d0 <main+0x5f0>)
 8001480:	e9d3 2300 	ldrd	r2, r3, [r3]
 8001484:	f7ff f8b8 	bl	80005f8 <__aeabi_dmul>
 8001488:	f7ff fb8e 	bl	8000ba8 <__aeabi_d2f>
 800148c:	edd4 7a0a 	vldr	s15, [r4, #40]	; 0x28
 8001490:	6260      	str	r0, [r4, #36]	; 0x24
 8001492:	ee67 7aa8 	vmul.f32	s15, s15, s17
 8001496:	eec7 7a88 	vdiv.f32	s15, s15, s16
 800149a:	ee17 0a90 	vmov	r0, s15
 800149e:	f7ff f853 	bl	8000548 <__aeabi_f2d>
 80014a2:	a34d      	add	r3, pc, #308	; (adr r3, 80015d8 <main+0x5f8>)
 80014a4:	e9d3 2300 	ldrd	r2, r3, [r3]
 80014a8:	f7ff f8a6 	bl	80005f8 <__aeabi_dmul>
 80014ac:	f7ff fb7c 	bl	8000ba8 <__aeabi_d2f>
 80014b0:	edd4 7a0b 	vldr	s15, [r4, #44]	; 0x2c
 80014b4:	62a0      	str	r0, [r4, #40]	; 0x28
 80014b6:	ee67 7aa8 	vmul.f32	s15, s15, s17
 80014ba:	eec7 7a88 	vdiv.f32	s15, s15, s16
 80014be:	ee17 0a90 	vmov	r0, s15
 80014c2:	f7ff f841 	bl	8000548 <__aeabi_f2d>
 80014c6:	a346      	add	r3, pc, #280	; (adr r3, 80015e0 <main+0x600>)
 80014c8:	e9d3 2300 	ldrd	r2, r3, [r3]
 80014cc:	f7ff f894 	bl	80005f8 <__aeabi_dmul>
 80014d0:	f7ff fb6a 	bl	8000ba8 <__aeabi_d2f>
 80014d4:	edd4 7a0c 	vldr	s15, [r4, #48]	; 0x30
 80014d8:	62e0      	str	r0, [r4, #44]	; 0x2c
 80014da:	ee67 7aa8 	vmul.f32	s15, s15, s17
 80014de:	eec7 7a88 	vdiv.f32	s15, s15, s16
 80014e2:	ee17 0a90 	vmov	r0, s15
 80014e6:	f7ff f82f 	bl	8000548 <__aeabi_f2d>
 80014ea:	a33f      	add	r3, pc, #252	; (adr r3, 80015e8 <main+0x608>)
 80014ec:	e9d3 2300 	ldrd	r2, r3, [r3]
 80014f0:	f7ff f882 	bl	80005f8 <__aeabi_dmul>
 80014f4:	f7ff fb58 	bl	8000ba8 <__aeabi_d2f>
 80014f8:	edd4 7a0d 	vldr	s15, [r4, #52]	; 0x34
 80014fc:	6320      	str	r0, [r4, #48]	; 0x30
 80014fe:	ee67 7aa8 	vmul.f32	s15, s15, s17
 8001502:	eec7 7a88 	vdiv.f32	s15, s15, s16
 8001506:	ee17 0a90 	vmov	r0, s15
 800150a:	f7ff f81d 	bl	8000548 <__aeabi_f2d>
 800150e:	a338      	add	r3, pc, #224	; (adr r3, 80015f0 <main+0x610>)
 8001510:	e9d3 2300 	ldrd	r2, r3, [r3]
 8001514:	f7ff f870 	bl	80005f8 <__aeabi_dmul>
 8001518:	f7ff fb46 	bl	8000ba8 <__aeabi_d2f>
 800151c:	edd4 7a0e 	vldr	s15, [r4, #56]	; 0x38
 8001520:	6360      	str	r0, [r4, #52]	; 0x34
 8001522:	ee67 7aa8 	vmul.f32	s15, s15, s17
 8001526:	eec7 7a88 	vdiv.f32	s15, s15, s16
 800152a:	ee17 0a90 	vmov	r0, s15
 800152e:	f7ff f80b 	bl	8000548 <__aeabi_f2d>
 8001532:	a331      	add	r3, pc, #196	; (adr r3, 80015f8 <main+0x618>)
 8001534:	e9d3 2300 	ldrd	r2, r3, [r3]
 8001538:	f7ff f85e 	bl	80005f8 <__aeabi_dmul>
 800153c:	f7ff fb34 	bl	8000ba8 <__aeabi_d2f>
 8001540:	edd4 7a0f 	vldr	s15, [r4, #60]	; 0x3c
 8001544:	63a0      	str	r0, [r4, #56]	; 0x38
 8001546:	ee67 8aa8 	vmul.f32	s17, s15, s17
 800154a:	eec8 7a88 	vdiv.f32	s15, s17, s16
 800154e:	ee17 0a90 	vmov	r0, s15
 8001552:	f7fe fff9 	bl	8000548 <__aeabi_f2d>
 8001556:	a32a      	add	r3, pc, #168	; (adr r3, 8001600 <main+0x620>)
 8001558:	e9d3 2300 	ldrd	r2, r3, [r3]
 800155c:	f7ff f84c 	bl	80005f8 <__aeabi_dmul>
 8001560:	f7ff fb22 	bl	8000ba8 <__aeabi_d2f>
 8001564:	230f      	movs	r3, #15
 8001566:	f8ca 3000 	str.w	r3, [sl]
 800156a:	4b38      	ldr	r3, [pc, #224]	; (800164c <main+0x66c>)
 800156c:	63e0      	str	r0, [r4, #60]	; 0x3c
 800156e:	4681      	mov	r9, r0
 8001570:	f1a3 0440 	sub.w	r4, r3, #64	; 0x40
 8001574:	429c      	cmp	r4, r3
 8001576:	f1a8 0804 	sub.w	r8, r8, #4
 800157a:	f040 80dd 	bne.w	8001738 <main+0x758>
 800157e:	2d00      	cmp	r5, #0
 8001580:	d068      	beq.n	8001654 <main+0x674>
 8001582:	f04f 33ff 	mov.w	r3, #4294967295
 8001586:	f8ca 3000 	str.w	r3, [sl]
 800158a:	e063      	b.n	8001654 <main+0x674>
 800158c:	f3af 8000 	nop.w
 8001590:	600ae601 	.word	0x600ae601
 8001594:	3ff000ae 	.word	0x3ff000ae
 8001598:	1fc478c6 	.word	0x1fc478c6
 800159c:	3ff0024a 	.word	0x3ff0024a
 80015a0:	7602920e 	.word	0x7602920e
 80015a4:	3fef7e12 	.word	0x3fef7e12
 80015a8:	83301bd3 	.word	0x83301bd3
 80015ac:	3ff00c5d 	.word	0x3ff00c5d
 80015b0:	690ce3ef 	.word	0x690ce3ef
 80015b4:	3fefbaf8 	.word	0x3fefbaf8
 80015b8:	11297990 	.word	0x11297990
 80015bc:	3fefd23c 	.word	0x3fefd23c
 80015c0:	ca5b1ea6 	.word	0xca5b1ea6
 80015c4:	3fef96f7 	.word	0x3fef96f7
 80015c8:	7cae3149 	.word	0x7cae3149
 80015cc:	3fefe164 	.word	0x3fefe164
 80015d0:	c3b57908 	.word	0xc3b57908
 80015d4:	3fef6e8a 	.word	0x3fef6e8a
 80015d8:	5cbe3936 	.word	0x5cbe3936
 80015dc:	3fef697f 	.word	0x3fef697f
 80015e0:	d8fcbe4c 	.word	0xd8fcbe4c
 80015e4:	3fef9d39 	.word	0x3fef9d39
 80015e8:	4084d62c 	.word	0x4084d62c
 80015ec:	3fef4998 	.word	0x3fef4998
 80015f0:	1140ff53 	.word	0x1140ff53
 80015f4:	3fefa4ce 	.word	0x3fefa4ce
 80015f8:	d7b7a11a 	.word	0xd7b7a11a
 80015fc:	3fef9aa8 	.word	0x3fef9aa8
 8001600:	48dfa58a 	.word	0x48dfa58a
 8001604:	3fef8c68 	.word	0x3fef8c68
 8001608:	200002f0 	.word	0x200002f0
 800160c:	20000314 	.word	0x20000314
 8001610:	20000268 	.word	0x20000268
 8001614:	40533333 	.word	0x40533333
 8001618:	20000258 	.word	0x20000258
 800161c:	1fff7a2a 	.word	0x1fff7a2a
 8001620:	200001f8 	.word	0x200001f8
 8001624:	200002b0 	.word	0x200002b0
 8001628:	20000444 	.word	0x20000444
 800162c:	457ff000 	.word	0x457ff000
 8001630:	46d09800 	.word	0x46d09800
 8001634:	4592e000 	.word	0x4592e000
 8001638:	46fa0000 	.word	0x46fa0000
 800163c:	461c4000 	.word	0x461c4000
 8001640:	46b13000 	.word	0x46b13000
 8001644:	442a0000 	.word	0x442a0000
 8001648:	3f7d8000 	.word	0x3f7d8000
 800164c:	200003a0 	.word	0x200003a0
 8001650:	2000035c 	.word	0x2000035c
 8001654:	6820      	ldr	r0, [r4, #0]
 8001656:	f7fe ff77 	bl	8000548 <__aeabi_f2d>
 800165a:	4602      	mov	r2, r0
 800165c:	460b      	mov	r3, r1
 800165e:	4648      	mov	r0, r9
 8001660:	e9cd 2320 	strd	r2, r3, [sp, #128]	; 0x80
 8001664:	f7fe ff70 	bl	8000548 <__aeabi_f2d>
 8001668:	e9cd 011e 	strd	r0, r1, [sp, #120]	; 0x78
 800166c:	6be0      	ldr	r0, [r4, #60]	; 0x3c
 800166e:	f7fe ff6b 	bl	8000548 <__aeabi_f2d>
 8001672:	e9cd 011c 	strd	r0, r1, [sp, #112]	; 0x70
 8001676:	6ba0      	ldr	r0, [r4, #56]	; 0x38
 8001678:	f7fe ff66 	bl	8000548 <__aeabi_f2d>
 800167c:	e9cd 011a 	strd	r0, r1, [sp, #104]	; 0x68
 8001680:	6b60      	ldr	r0, [r4, #52]	; 0x34
 8001682:	f7fe ff61 	bl	8000548 <__aeabi_f2d>
 8001686:	e9cd 0118 	strd	r0, r1, [sp, #96]	; 0x60
 800168a:	6b20      	ldr	r0, [r4, #48]	; 0x30
 800168c:	f7fe ff5c 	bl	8000548 <__aeabi_f2d>
 8001690:	e9cd 0116 	strd	r0, r1, [sp, #88]	; 0x58
 8001694:	6ae0      	ldr	r0, [r4, #44]	; 0x2c
 8001696:	f7fe ff57 	bl	8000548 <__aeabi_f2d>
 800169a:	e9cd 0114 	strd	r0, r1, [sp, #80]	; 0x50
 800169e:	6aa0      	ldr	r0, [r4, #40]	; 0x28
 80016a0:	f7fe ff52 	bl	8000548 <__aeabi_f2d>
 80016a4:	e9cd 0112 	strd	r0, r1, [sp, #72]	; 0x48
 80016a8:	6a60      	ldr	r0, [r4, #36]	; 0x24
 80016aa:	f7fe ff4d 	bl	8000548 <__aeabi_f2d>
 80016ae:	e9cd 0110 	strd	r0, r1, [sp, #64]	; 0x40
 80016b2:	6a20      	ldr	r0, [r4, #32]
 80016b4:	f7fe ff48 	bl	8000548 <__aeabi_f2d>
 80016b8:	e9cd 010e 	strd	r0, r1, [sp, #56]	; 0x38
 80016bc:	69e0      	ldr	r0, [r4, #28]
 80016be:	f7fe ff43 	bl	8000548 <__aeabi_f2d>
 80016c2:	e9cd 010c 	strd	r0, r1, [sp, #48]	; 0x30
 80016c6:	69a0      	ldr	r0, [r4, #24]
 80016c8:	f7fe ff3e 	bl	8000548 <__aeabi_f2d>
 80016cc:	e9cd 010a 	strd	r0, r1, [sp, #40]	; 0x28
 80016d0:	6960      	ldr	r0, [r4, #20]
 80016d2:	f7fe ff39 	bl	8000548 <__aeabi_f2d>
 80016d6:	e9cd 0108 	strd	r0, r1, [sp, #32]
 80016da:	6920      	ldr	r0, [r4, #16]
 80016dc:	f7fe ff34 	bl	8000548 <__aeabi_f2d>
 80016e0:	e9cd 0106 	strd	r0, r1, [sp, #24]
 80016e4:	68e0      	ldr	r0, [r4, #12]
 80016e6:	f7fe ff2f 	bl	8000548 <__aeabi_f2d>
 80016ea:	e9cd 0104 	strd	r0, r1, [sp, #16]
 80016ee:	68a0      	ldr	r0, [r4, #8]
 80016f0:	f7fe ff2a 	bl	8000548 <__aeabi_f2d>
 80016f4:	e9cd 0102 	strd	r0, r1, [sp, #8]
 80016f8:	6860      	ldr	r0, [r4, #4]
 80016fa:	f7fe ff25 	bl	8000548 <__aeabi_f2d>
 80016fe:	e9dd 2320 	ldrd	r2, r3, [sp, #128]	; 0x80
 8001702:	e9cd 0100 	strd	r0, r1, [sp]
 8001706:	4914      	ldr	r1, [pc, #80]	; (8001758 <main+0x778>)
 8001708:	4814      	ldr	r0, [pc, #80]	; (800175c <main+0x77c>)
 800170a:	f001 ffeb 	bl	80036e4 <siprintf>
 800170e:	4913      	ldr	r1, [pc, #76]	; (800175c <main+0x77c>)
 8001710:	4813      	ldr	r0, [pc, #76]	; (8001760 <main+0x780>)
 8001712:	f640 33b8 	movw	r3, #3000	; 0xbb8
 8001716:	2259      	movs	r2, #89	; 0x59
 8001718:	f001 faf2 	bl	8002d00 <HAL_UART_Transmit>
 800171c:	b1b0      	cbz	r0, 800174c <main+0x76c>
 800171e:	b672      	cpsid	i
 8001720:	e7fe      	b.n	8001720 <main+0x740>
 8001722:	ed93 6a00 	vldr	s12, [r3]
 8001726:	eec6 7a07 	vdiv.f32	s15, s12, s14
 800172a:	ee67 7aa6 	vmul.f32	s15, s15, s13
 800172e:	ece2 7a01 	vstmia	r2!, {s15}
 8001732:	ece3 7a01 	vstmia	r3!, {s15}
 8001736:	e5f0      	b.n	800131a <main+0x33a>
 8001738:	edd8 7a10 	vldr	s15, [r8, #64]	; 0x40
 800173c:	ed98 7a0f 	vldr	s14, [r8, #60]	; 0x3c
 8001740:	ee77 7ac7 	vsub.f32	s15, s15, s14
 8001744:	2501      	movs	r5, #1
 8001746:	ed63 7a01 	vstmdb	r3!, {s15}
 800174a:	e713      	b.n	8001574 <main+0x594>
 800174c:	f44f 707a 	mov.w	r0, #1000	; 0x3e8
 8001750:	f000 f9e8 	bl	8001b24 <HAL_Delay>
 8001754:	e5af      	b.n	80012b6 <main+0x2d6>
 8001756:	bf00      	nop
 8001758:	08005b58 	.word	0x08005b58
 800175c:	200001fc 	.word	0x200001fc
 8001760:	20000400 	.word	0x20000400

08001764 <Error_Handler>:
 8001764:	b672      	cpsid	i
 8001766:	e7fe      	b.n	8001766 <Error_Handler+0x2>

08001768 <HAL_MspInit>:
 8001768:	b082      	sub	sp, #8
 800176a:	4b0c      	ldr	r3, [pc, #48]	; (800179c <HAL_MspInit+0x34>)
 800176c:	2100      	movs	r1, #0
 800176e:	9100      	str	r1, [sp, #0]
 8001770:	6c5a      	ldr	r2, [r3, #68]	; 0x44
 8001772:	f442 4280 	orr.w	r2, r2, #16384	; 0x4000
 8001776:	645a      	str	r2, [r3, #68]	; 0x44
 8001778:	6c5a      	ldr	r2, [r3, #68]	; 0x44
 800177a:	f402 4280 	and.w	r2, r2, #16384	; 0x4000
 800177e:	9200      	str	r2, [sp, #0]
 8001780:	9a00      	ldr	r2, [sp, #0]
 8001782:	9101      	str	r1, [sp, #4]
 8001784:	6c1a      	ldr	r2, [r3, #64]	; 0x40
 8001786:	f042 5280 	orr.w	r2, r2, #268435456	; 0x10000000
 800178a:	641a      	str	r2, [r3, #64]	; 0x40
 800178c:	6c1b      	ldr	r3, [r3, #64]	; 0x40
 800178e:	f003 5380 	and.w	r3, r3, #268435456	; 0x10000000
 8001792:	9301      	str	r3, [sp, #4]
 8001794:	9b01      	ldr	r3, [sp, #4]
 8001796:	b002      	add	sp, #8
 8001798:	4770      	bx	lr
 800179a:	bf00      	nop
 800179c:	40023800 	.word	0x40023800

080017a0 <HAL_ADC_MspInit>:
 80017a0:	b570      	push	{r4, r5, r6, lr}
 80017a2:	4606      	mov	r6, r0
 80017a4:	b08c      	sub	sp, #48	; 0x30
 80017a6:	2214      	movs	r2, #20
 80017a8:	2100      	movs	r1, #0
 80017aa:	a807      	add	r0, sp, #28
 80017ac:	f001 fb28 	bl	8002e00 <memset>
 80017b0:	6833      	ldr	r3, [r6, #0]
 80017b2:	4a44      	ldr	r2, [pc, #272]	; (80018c4 <HAL_ADC_MspInit+0x124>)
 80017b4:	4293      	cmp	r3, r2
 80017b6:	d161      	bne.n	800187c <HAL_ADC_MspInit+0xdc>
 80017b8:	4b43      	ldr	r3, [pc, #268]	; (80018c8 <HAL_ADC_MspInit+0x128>)
 80017ba:	4844      	ldr	r0, [pc, #272]	; (80018cc <HAL_ADC_MspInit+0x12c>)
 80017bc:	2500      	movs	r5, #0
 80017be:	9501      	str	r5, [sp, #4]
 80017c0:	6c5a      	ldr	r2, [r3, #68]	; 0x44
 80017c2:	f442 7280 	orr.w	r2, r2, #256	; 0x100
 80017c6:	645a      	str	r2, [r3, #68]	; 0x44
 80017c8:	6c5a      	ldr	r2, [r3, #68]	; 0x44
 80017ca:	f402 7280 	and.w	r2, r2, #256	; 0x100
 80017ce:	9201      	str	r2, [sp, #4]
 80017d0:	9a01      	ldr	r2, [sp, #4]
 80017d2:	9502      	str	r5, [sp, #8]
 80017d4:	6b1a      	ldr	r2, [r3, #48]	; 0x30
 80017d6:	f042 0204 	orr.w	r2, r2, #4
 80017da:	631a      	str	r2, [r3, #48]	; 0x30
 80017dc:	6b1a      	ldr	r2, [r3, #48]	; 0x30
 80017de:	f002 0204 	and.w	r2, r2, #4
 80017e2:	9202      	str	r2, [sp, #8]
 80017e4:	9a02      	ldr	r2, [sp, #8]
 80017e6:	9503      	str	r5, [sp, #12]
 80017e8:	6b1a      	ldr	r2, [r3, #48]	; 0x30
 80017ea:	f042 0201 	orr.w	r2, r2, #1
 80017ee:	631a      	str	r2, [r3, #48]	; 0x30
 80017f0:	6b1a      	ldr	r2, [r3, #48]	; 0x30
 80017f2:	f002 0201 	and.w	r2, r2, #1
 80017f6:	9203      	str	r2, [sp, #12]
 80017f8:	9a03      	ldr	r2, [sp, #12]
 80017fa:	9504      	str	r5, [sp, #16]
 80017fc:	6b1a      	ldr	r2, [r3, #48]	; 0x30
 80017fe:	f042 0202 	orr.w	r2, r2, #2
 8001802:	631a      	str	r2, [r3, #48]	; 0x30
 8001804:	6b1b      	ldr	r3, [r3, #48]	; 0x30
 8001806:	9509      	str	r5, [sp, #36]	; 0x24
 8001808:	f003 0302 	and.w	r3, r3, #2
 800180c:	9304      	str	r3, [sp, #16]
 800180e:	2403      	movs	r4, #3
 8001810:	9b04      	ldr	r3, [sp, #16]
 8001812:	a907      	add	r1, sp, #28
 8001814:	231f      	movs	r3, #31
 8001816:	e9cd 3407 	strd	r3, r4, [sp, #28]
 800181a:	f000 fe3f 	bl	800249c <HAL_GPIO_Init>
 800181e:	23ff      	movs	r3, #255	; 0xff
 8001820:	482b      	ldr	r0, [pc, #172]	; (80018d0 <HAL_ADC_MspInit+0x130>)
 8001822:	9509      	str	r5, [sp, #36]	; 0x24
 8001824:	a907      	add	r1, sp, #28
 8001826:	e9cd 3407 	strd	r3, r4, [sp, #28]
 800182a:	f000 fe37 	bl	800249c <HAL_GPIO_Init>
 800182e:	4829      	ldr	r0, [pc, #164]	; (80018d4 <HAL_ADC_MspInit+0x134>)
 8001830:	9509      	str	r5, [sp, #36]	; 0x24
 8001832:	a907      	add	r1, sp, #28
 8001834:	e9cd 4407 	strd	r4, r4, [sp, #28]
 8001838:	f000 fe30 	bl	800249c <HAL_GPIO_Init>
 800183c:	4c26      	ldr	r4, [pc, #152]	; (80018d8 <HAL_ADC_MspInit+0x138>)
 800183e:	4b27      	ldr	r3, [pc, #156]	; (80018dc <HAL_ADC_MspInit+0x13c>)
 8001840:	f44f 6080 	mov.w	r0, #1024	; 0x400
 8001844:	e9c4 3500 	strd	r3, r5, [r4]
 8001848:	f44f 6300 	mov.w	r3, #2048	; 0x800
 800184c:	e9c4 0304 	strd	r0, r3, [r4, #16]
 8001850:	f44f 5c00 	mov.w	ip, #8192	; 0x2000
 8001854:	f44f 7380 	mov.w	r3, #256	; 0x100
 8001858:	e9c4 c306 	strd	ip, r3, [r4, #24]
 800185c:	4620      	mov	r0, r4
 800185e:	f44f 3340 	mov.w	r3, #196608	; 0x30000
 8001862:	e9c4 5502 	strd	r5, r5, [r4, #8]
 8001866:	e9c4 3508 	strd	r3, r5, [r4, #32]
 800186a:	f000 fc9f 	bl	80021ac <HAL_DMA_Init>
 800186e:	b108      	cbz	r0, 8001874 <HAL_ADC_MspInit+0xd4>
 8001870:	f7ff ff78 	bl	8001764 <Error_Handler>
 8001874:	63b4      	str	r4, [r6, #56]	; 0x38
 8001876:	63a6      	str	r6, [r4, #56]	; 0x38
 8001878:	b00c      	add	sp, #48	; 0x30
 800187a:	bd70      	pop	{r4, r5, r6, pc}
 800187c:	4a18      	ldr	r2, [pc, #96]	; (80018e0 <HAL_ADC_MspInit+0x140>)
 800187e:	4293      	cmp	r3, r2
 8001880:	d1fa      	bne.n	8001878 <HAL_ADC_MspInit+0xd8>
 8001882:	4b11      	ldr	r3, [pc, #68]	; (80018c8 <HAL_ADC_MspInit+0x128>)
 8001884:	4811      	ldr	r0, [pc, #68]	; (80018cc <HAL_ADC_MspInit+0x12c>)
 8001886:	2200      	movs	r2, #0
 8001888:	9205      	str	r2, [sp, #20]
 800188a:	6c59      	ldr	r1, [r3, #68]	; 0x44
 800188c:	f441 7100 	orr.w	r1, r1, #512	; 0x200
 8001890:	6459      	str	r1, [r3, #68]	; 0x44
 8001892:	6c59      	ldr	r1, [r3, #68]	; 0x44
 8001894:	f401 7100 	and.w	r1, r1, #512	; 0x200
 8001898:	9105      	str	r1, [sp, #20]
 800189a:	9905      	ldr	r1, [sp, #20]
 800189c:	9206      	str	r2, [sp, #24]
 800189e:	6b19      	ldr	r1, [r3, #48]	; 0x30
 80018a0:	f041 0104 	orr.w	r1, r1, #4
 80018a4:	6319      	str	r1, [r3, #48]	; 0x30
 80018a6:	6b1b      	ldr	r3, [r3, #48]	; 0x30
 80018a8:	9209      	str	r2, [sp, #36]	; 0x24
 80018aa:	f003 0304 	and.w	r3, r3, #4
 80018ae:	9306      	str	r3, [sp, #24]
 80018b0:	9b06      	ldr	r3, [sp, #24]
 80018b2:	2120      	movs	r1, #32
 80018b4:	2303      	movs	r3, #3
 80018b6:	e9cd 1307 	strd	r1, r3, [sp, #28]
 80018ba:	a907      	add	r1, sp, #28
 80018bc:	f000 fdee 	bl	800249c <HAL_GPIO_Init>
 80018c0:	e7da      	b.n	8001878 <HAL_ADC_MspInit+0xd8>
 80018c2:	bf00      	nop
 80018c4:	40012000 	.word	0x40012000
 80018c8:	40023800 	.word	0x40023800
 80018cc:	40020800 	.word	0x40020800
 80018d0:	40020000 	.word	0x40020000
 80018d4:	40020400 	.word	0x40020400
 80018d8:	200003a0 	.word	0x200003a0
 80018dc:	40026410 	.word	0x40026410
 80018e0:	40012100 	.word	0x40012100

080018e4 <HAL_UART_MspInit>:
 80018e4:	b510      	push	{r4, lr}
 80018e6:	4604      	mov	r4, r0
 80018e8:	b088      	sub	sp, #32
 80018ea:	2214      	movs	r2, #20
 80018ec:	2100      	movs	r1, #0
 80018ee:	a803      	add	r0, sp, #12
 80018f0:	f001 fa86 	bl	8002e00 <memset>
 80018f4:	6822      	ldr	r2, [r4, #0]
 80018f6:	4b14      	ldr	r3, [pc, #80]	; (8001948 <HAL_UART_MspInit+0x64>)
 80018f8:	429a      	cmp	r2, r3
 80018fa:	d123      	bne.n	8001944 <HAL_UART_MspInit+0x60>
 80018fc:	f503 33fa 	add.w	r3, r3, #128000	; 0x1f400
 8001900:	2200      	movs	r2, #0
 8001902:	9201      	str	r2, [sp, #4]
 8001904:	6c19      	ldr	r1, [r3, #64]	; 0x40
 8001906:	f441 3100 	orr.w	r1, r1, #131072	; 0x20000
 800190a:	6419      	str	r1, [r3, #64]	; 0x40
 800190c:	6c19      	ldr	r1, [r3, #64]	; 0x40
 800190e:	f401 3100 	and.w	r1, r1, #131072	; 0x20000
 8001912:	9101      	str	r1, [sp, #4]
 8001914:	9901      	ldr	r1, [sp, #4]
 8001916:	9202      	str	r2, [sp, #8]
 8001918:	6b19      	ldr	r1, [r3, #48]	; 0x30
 800191a:	f041 0108 	orr.w	r1, r1, #8
 800191e:	6319      	str	r1, [r3, #48]	; 0x30
 8001920:	6b1b      	ldr	r3, [r3, #48]	; 0x30
 8001922:	9205      	str	r2, [sp, #20]
 8001924:	f003 0308 	and.w	r3, r3, #8
 8001928:	9302      	str	r3, [sp, #8]
 800192a:	2160      	movs	r1, #96	; 0x60
 800192c:	9b02      	ldr	r3, [sp, #8]
 800192e:	2302      	movs	r3, #2
 8001930:	e9cd 1303 	strd	r1, r3, [sp, #12]
 8001934:	2003      	movs	r0, #3
 8001936:	2307      	movs	r3, #7
 8001938:	e9cd 0306 	strd	r0, r3, [sp, #24]
 800193c:	a903      	add	r1, sp, #12
 800193e:	4803      	ldr	r0, [pc, #12]	; (800194c <HAL_UART_MspInit+0x68>)
 8001940:	f000 fdac 	bl	800249c <HAL_GPIO_Init>
 8001944:	b008      	add	sp, #32
 8001946:	bd10      	pop	{r4, pc}
 8001948:	40004400 	.word	0x40004400
 800194c:	40020c00 	.word	0x40020c00

08001950 <NMI_Handler>:
 8001950:	e7fe      	b.n	8001950 <NMI_Handler>

08001952 <HardFault_Handler>:
 8001952:	e7fe      	b.n	8001952 <HardFault_Handler>

08001954 <MemManage_Handler>:
 8001954:	e7fe      	b.n	8001954 <MemManage_Handler>

08001956 <BusFault_Handler>:
 8001956:	e7fe      	b.n	8001956 <BusFault_Handler>

08001958 <UsageFault_Handler>:
 8001958:	e7fe      	b.n	8001958 <UsageFault_Handler>

0800195a <SVC_Handler>:
 800195a:	4770      	bx	lr

0800195c <DebugMon_Handler>:
 800195c:	4770      	bx	lr

0800195e <PendSV_Handler>:
 800195e:	4770      	bx	lr

08001960 <SysTick_Handler>:
 8001960:	f000 b8ce 	b.w	8001b00 <HAL_IncTick>

08001964 <DMA2_Stream0_IRQHandler>:
 8001964:	4801      	ldr	r0, [pc, #4]	; (800196c <DMA2_Stream0_IRQHandler+0x8>)
 8001966:	f000 bcdb 	b.w	8002320 <HAL_DMA_IRQHandler>
 800196a:	bf00      	nop
 800196c:	200003a0 	.word	0x200003a0

08001970 <_getpid>:
 8001970:	2001      	movs	r0, #1
 8001972:	4770      	bx	lr

08001974 <_kill>:
 8001974:	b508      	push	{r3, lr}
 8001976:	f001 fa19 	bl	8002dac <__errno>
 800197a:	2316      	movs	r3, #22
 800197c:	6003      	str	r3, [r0, #0]
 800197e:	f04f 30ff 	mov.w	r0, #4294967295
 8001982:	bd08      	pop	{r3, pc}

08001984 <_exit>:
 8001984:	b508      	push	{r3, lr}
 8001986:	f001 fa11 	bl	8002dac <__errno>
 800198a:	2316      	movs	r3, #22
 800198c:	6003      	str	r3, [r0, #0]
 800198e:	e7fe      	b.n	800198e <_exit+0xa>

08001990 <_read>:
 8001990:	b570      	push	{r4, r5, r6, lr}
 8001992:	460e      	mov	r6, r1
 8001994:	4614      	mov	r4, r2
 8001996:	2500      	movs	r5, #0
 8001998:	42a5      	cmp	r5, r4
 800199a:	db01      	blt.n	80019a0 <_read+0x10>
 800199c:	4620      	mov	r0, r4
 800199e:	bd70      	pop	{r4, r5, r6, pc}
 80019a0:	f3af 8000 	nop.w
 80019a4:	5570      	strb	r0, [r6, r5]
 80019a6:	3501      	adds	r5, #1
 80019a8:	e7f6      	b.n	8001998 <_read+0x8>

080019aa <_write>:
 80019aa:	b570      	push	{r4, r5, r6, lr}
 80019ac:	460e      	mov	r6, r1
 80019ae:	4614      	mov	r4, r2
 80019b0:	2500      	movs	r5, #0
 80019b2:	42a5      	cmp	r5, r4
 80019b4:	db01      	blt.n	80019ba <_write+0x10>
 80019b6:	4620      	mov	r0, r4
 80019b8:	bd70      	pop	{r4, r5, r6, pc}
 80019ba:	5d70      	ldrb	r0, [r6, r5]
 80019bc:	f3af 8000 	nop.w
 80019c0:	3501      	adds	r5, #1
 80019c2:	e7f6      	b.n	80019b2 <_write+0x8>

080019c4 <_close>:
 80019c4:	f04f 30ff 	mov.w	r0, #4294967295
 80019c8:	4770      	bx	lr

080019ca <_fstat>:
 80019ca:	f44f 5300 	mov.w	r3, #8192	; 0x2000
 80019ce:	604b      	str	r3, [r1, #4]
 80019d0:	2000      	movs	r0, #0
 80019d2:	4770      	bx	lr

080019d4 <_isatty>:
 80019d4:	2001      	movs	r0, #1
 80019d6:	4770      	bx	lr

080019d8 <_lseek>:
 80019d8:	2000      	movs	r0, #0
 80019da:	4770      	bx	lr

080019dc <_sbrk>:
 80019dc:	4b0b      	ldr	r3, [pc, #44]	; (8001a0c <_sbrk+0x30>)
 80019de:	6819      	ldr	r1, [r3, #0]
 80019e0:	b510      	push	{r4, lr}
 80019e2:	4602      	mov	r2, r0
 80019e4:	b909      	cbnz	r1, 80019ea <_sbrk+0xe>
 80019e6:	490a      	ldr	r1, [pc, #40]	; (8001a10 <_sbrk+0x34>)
 80019e8:	6019      	str	r1, [r3, #0]
 80019ea:	6818      	ldr	r0, [r3, #0]
 80019ec:	4909      	ldr	r1, [pc, #36]	; (8001a14 <_sbrk+0x38>)
 80019ee:	4c0a      	ldr	r4, [pc, #40]	; (8001a18 <_sbrk+0x3c>)
 80019f0:	4402      	add	r2, r0
 80019f2:	1b09      	subs	r1, r1, r4
 80019f4:	428a      	cmp	r2, r1
 80019f6:	d906      	bls.n	8001a06 <_sbrk+0x2a>
 80019f8:	f001 f9d8 	bl	8002dac <__errno>
 80019fc:	230c      	movs	r3, #12
 80019fe:	6003      	str	r3, [r0, #0]
 8001a00:	f04f 30ff 	mov.w	r0, #4294967295
 8001a04:	bd10      	pop	{r4, pc}
 8001a06:	601a      	str	r2, [r3, #0]
 8001a08:	e7fc      	b.n	8001a04 <_sbrk+0x28>
 8001a0a:	bf00      	nop
 8001a0c:	2000025c 	.word	0x2000025c
 8001a10:	20000498 	.word	0x20000498
 8001a14:	20020000 	.word	0x20020000
 8001a18:	00000400 	.word	0x00000400

08001a1c <SystemInit>:
 8001a1c:	4a03      	ldr	r2, [pc, #12]	; (8001a2c <SystemInit+0x10>)
 8001a1e:	f8d2 3088 	ldr.w	r3, [r2, #136]	; 0x88
 8001a22:	f443 0370 	orr.w	r3, r3, #15728640	; 0xf00000
 8001a26:	f8c2 3088 	str.w	r3, [r2, #136]	; 0x88
 8001a2a:	4770      	bx	lr
 8001a2c:	e000ed00 	.word	0xe000ed00

08001a30 <Reset_Handler>:
 8001a30:	f8df d034 	ldr.w	sp, [pc, #52]	; 8001a68 <LoopFillZerobss+0x12>
 8001a34:	480d      	ldr	r0, [pc, #52]	; (8001a6c <LoopFillZerobss+0x16>)
 8001a36:	490e      	ldr	r1, [pc, #56]	; (8001a70 <LoopFillZerobss+0x1a>)
 8001a38:	4a0e      	ldr	r2, [pc, #56]	; (8001a74 <LoopFillZerobss+0x1e>)
 8001a3a:	2300      	movs	r3, #0
 8001a3c:	e002      	b.n	8001a44 <LoopCopyDataInit>

08001a3e <CopyDataInit>:
 8001a3e:	58d4      	ldr	r4, [r2, r3]
 8001a40:	50c4      	str	r4, [r0, r3]
 8001a42:	3304      	adds	r3, #4

08001a44 <LoopCopyDataInit>:
 8001a44:	18c4      	adds	r4, r0, r3
 8001a46:	428c      	cmp	r4, r1
 8001a48:	d3f9      	bcc.n	8001a3e <CopyDataInit>
 8001a4a:	4a0b      	ldr	r2, [pc, #44]	; (8001a78 <LoopFillZerobss+0x22>)
 8001a4c:	4c0b      	ldr	r4, [pc, #44]	; (8001a7c <LoopFillZerobss+0x26>)
 8001a4e:	2300      	movs	r3, #0
 8001a50:	e001      	b.n	8001a56 <LoopFillZerobss>

08001a52 <FillZerobss>:
 8001a52:	6013      	str	r3, [r2, #0]
 8001a54:	3204      	adds	r2, #4

08001a56 <LoopFillZerobss>:
 8001a56:	42a2      	cmp	r2, r4
 8001a58:	d3fb      	bcc.n	8001a52 <FillZerobss>
 8001a5a:	f7ff ffdf 	bl	8001a1c <SystemInit>
 8001a5e:	f001 f9ab 	bl	8002db8 <__libc_init_array>
 8001a62:	f7ff fabd 	bl	8000fe0 <main>
 8001a66:	4770      	bx	lr
 8001a68:	20020000 	.word	0x20020000
 8001a6c:	20000000 	.word	0x20000000
 8001a70:	200001dc 	.word	0x200001dc
 8001a74:	08005fc4 	.word	0x08005fc4
 8001a78:	200001dc 	.word	0x200001dc
 8001a7c:	20000498 	.word	0x20000498

08001a80 <ADC_IRQHandler>:
 8001a80:	e7fe      	b.n	8001a80 <ADC_IRQHandler>
	...

08001a84 <HAL_InitTick>:
 8001a84:	b538      	push	{r3, r4, r5, lr}
 8001a86:	4a0e      	ldr	r2, [pc, #56]	; (8001ac0 <HAL_InitTick+0x3c>)
 8001a88:	4b0e      	ldr	r3, [pc, #56]	; (8001ac4 <HAL_InitTick+0x40>)
 8001a8a:	4605      	mov	r5, r0
 8001a8c:	7818      	ldrb	r0, [r3, #0]
 8001a8e:	f44f 737a 	mov.w	r3, #1000	; 0x3e8
 8001a92:	fbb3 f3f0 	udiv	r3, r3, r0
 8001a96:	6810      	ldr	r0, [r2, #0]
 8001a98:	fbb0 f0f3 	udiv	r0, r0, r3
 8001a9c:	f000 fb5a 	bl	8002154 <HAL_SYSTICK_Config>
 8001aa0:	4604      	mov	r4, r0
 8001aa2:	b958      	cbnz	r0, 8001abc <HAL_InitTick+0x38>
 8001aa4:	2d0f      	cmp	r5, #15
 8001aa6:	d809      	bhi.n	8001abc <HAL_InitTick+0x38>
 8001aa8:	4602      	mov	r2, r0
 8001aaa:	4629      	mov	r1, r5
 8001aac:	f04f 30ff 	mov.w	r0, #4294967295
 8001ab0:	f000 fb10 	bl	80020d4 <HAL_NVIC_SetPriority>
 8001ab4:	4b04      	ldr	r3, [pc, #16]	; (8001ac8 <HAL_InitTick+0x44>)
 8001ab6:	4620      	mov	r0, r4
 8001ab8:	601d      	str	r5, [r3, #0]
 8001aba:	bd38      	pop	{r3, r4, r5, pc}
 8001abc:	2001      	movs	r0, #1
 8001abe:	e7fc      	b.n	8001aba <HAL_InitTick+0x36>
 8001ac0:	20000000 	.word	0x20000000
 8001ac4:	20000004 	.word	0x20000004
 8001ac8:	20000008 	.word	0x20000008

08001acc <HAL_Init>:
 8001acc:	b508      	push	{r3, lr}
 8001ace:	4b0b      	ldr	r3, [pc, #44]	; (8001afc <HAL_Init+0x30>)
 8001ad0:	681a      	ldr	r2, [r3, #0]
 8001ad2:	f442 7200 	orr.w	r2, r2, #512	; 0x200
 8001ad6:	601a      	str	r2, [r3, #0]
 8001ad8:	681a      	ldr	r2, [r3, #0]
 8001ada:	f442 6280 	orr.w	r2, r2, #1024	; 0x400
 8001ade:	601a      	str	r2, [r3, #0]
 8001ae0:	681a      	ldr	r2, [r3, #0]
 8001ae2:	f442 7280 	orr.w	r2, r2, #256	; 0x100
 8001ae6:	601a      	str	r2, [r3, #0]
 8001ae8:	2003      	movs	r0, #3
 8001aea:	f000 fae1 	bl	80020b0 <HAL_NVIC_SetPriorityGrouping>
 8001aee:	200f      	movs	r0, #15
 8001af0:	f7ff ffc8 	bl	8001a84 <HAL_InitTick>
 8001af4:	f7ff fe38 	bl	8001768 <HAL_MspInit>
 8001af8:	2000      	movs	r0, #0
 8001afa:	bd08      	pop	{r3, pc}
 8001afc:	40023c00 	.word	0x40023c00

08001b00 <HAL_IncTick>:
 8001b00:	4a03      	ldr	r2, [pc, #12]	; (8001b10 <HAL_IncTick+0x10>)
 8001b02:	4b04      	ldr	r3, [pc, #16]	; (8001b14 <HAL_IncTick+0x14>)
 8001b04:	6811      	ldr	r1, [r2, #0]
 8001b06:	781b      	ldrb	r3, [r3, #0]
 8001b08:	440b      	add	r3, r1
 8001b0a:	6013      	str	r3, [r2, #0]
 8001b0c:	4770      	bx	lr
 8001b0e:	bf00      	nop
 8001b10:	20000484 	.word	0x20000484
 8001b14:	20000004 	.word	0x20000004

08001b18 <HAL_GetTick>:
 8001b18:	4b01      	ldr	r3, [pc, #4]	; (8001b20 <HAL_GetTick+0x8>)
 8001b1a:	6818      	ldr	r0, [r3, #0]
 8001b1c:	4770      	bx	lr
 8001b1e:	bf00      	nop
 8001b20:	20000484 	.word	0x20000484

08001b24 <HAL_Delay>:
 8001b24:	b538      	push	{r3, r4, r5, lr}
 8001b26:	4604      	mov	r4, r0
 8001b28:	f7ff fff6 	bl	8001b18 <HAL_GetTick>
 8001b2c:	1c63      	adds	r3, r4, #1
 8001b2e:	bf1c      	itt	ne
 8001b30:	4b05      	ldrne	r3, [pc, #20]	; (8001b48 <HAL_Delay+0x24>)
 8001b32:	781b      	ldrbne	r3, [r3, #0]
 8001b34:	4605      	mov	r5, r0
 8001b36:	bf18      	it	ne
 8001b38:	18e4      	addne	r4, r4, r3
 8001b3a:	f7ff ffed 	bl	8001b18 <HAL_GetTick>
 8001b3e:	1b43      	subs	r3, r0, r5
 8001b40:	42a3      	cmp	r3, r4
 8001b42:	d3fa      	bcc.n	8001b3a <HAL_Delay+0x16>
 8001b44:	bd38      	pop	{r3, r4, r5, pc}
 8001b46:	bf00      	nop
 8001b48:	20000004 	.word	0x20000004

08001b4c <HAL_ADC_Init>:
 8001b4c:	b538      	push	{r3, r4, r5, lr}
 8001b4e:	4604      	mov	r4, r0
 8001b50:	2800      	cmp	r0, #0
 8001b52:	f000 809b 	beq.w	8001c8c <HAL_ADC_Init+0x140>
 8001b56:	6c05      	ldr	r5, [r0, #64]	; 0x40
 8001b58:	b925      	cbnz	r5, 8001b64 <HAL_ADC_Init+0x18>
 8001b5a:	f7ff fe21 	bl	80017a0 <HAL_ADC_MspInit>
 8001b5e:	6465      	str	r5, [r4, #68]	; 0x44
 8001b60:	f884 503c 	strb.w	r5, [r4, #60]	; 0x3c
 8001b64:	6c23      	ldr	r3, [r4, #64]	; 0x40
 8001b66:	06db      	lsls	r3, r3, #27
 8001b68:	f100 808e 	bmi.w	8001c88 <HAL_ADC_Init+0x13c>
 8001b6c:	6c23      	ldr	r3, [r4, #64]	; 0x40
 8001b6e:	f423 5388 	bic.w	r3, r3, #4352	; 0x1100
 8001b72:	f023 0302 	bic.w	r3, r3, #2
 8001b76:	f043 0302 	orr.w	r3, r3, #2
 8001b7a:	6423      	str	r3, [r4, #64]	; 0x40
 8001b7c:	4b44      	ldr	r3, [pc, #272]	; (8001c90 <HAL_ADC_Init+0x144>)
 8001b7e:	685a      	ldr	r2, [r3, #4]
 8001b80:	f422 3240 	bic.w	r2, r2, #196608	; 0x30000
 8001b84:	605a      	str	r2, [r3, #4]
 8001b86:	685a      	ldr	r2, [r3, #4]
 8001b88:	6861      	ldr	r1, [r4, #4]
 8001b8a:	430a      	orrs	r2, r1
 8001b8c:	605a      	str	r2, [r3, #4]
 8001b8e:	6823      	ldr	r3, [r4, #0]
 8001b90:	6921      	ldr	r1, [r4, #16]
 8001b92:	685a      	ldr	r2, [r3, #4]
 8001b94:	f422 7280 	bic.w	r2, r2, #256	; 0x100
 8001b98:	605a      	str	r2, [r3, #4]
 8001b9a:	685a      	ldr	r2, [r3, #4]
 8001b9c:	ea42 2201 	orr.w	r2, r2, r1, lsl #8
 8001ba0:	605a      	str	r2, [r3, #4]
 8001ba2:	685a      	ldr	r2, [r3, #4]
 8001ba4:	68a1      	ldr	r1, [r4, #8]
 8001ba6:	f022 7240 	bic.w	r2, r2, #50331648	; 0x3000000
 8001baa:	605a      	str	r2, [r3, #4]
 8001bac:	685a      	ldr	r2, [r3, #4]
 8001bae:	430a      	orrs	r2, r1
 8001bb0:	605a      	str	r2, [r3, #4]
 8001bb2:	689a      	ldr	r2, [r3, #8]
 8001bb4:	68e1      	ldr	r1, [r4, #12]
 8001bb6:	f422 6200 	bic.w	r2, r2, #2048	; 0x800
 8001bba:	609a      	str	r2, [r3, #8]
 8001bbc:	689a      	ldr	r2, [r3, #8]
 8001bbe:	430a      	orrs	r2, r1
 8001bc0:	609a      	str	r2, [r3, #8]
 8001bc2:	4934      	ldr	r1, [pc, #208]	; (8001c94 <HAL_ADC_Init+0x148>)
 8001bc4:	6aa2      	ldr	r2, [r4, #40]	; 0x28
 8001bc6:	428a      	cmp	r2, r1
 8001bc8:	d052      	beq.n	8001c70 <HAL_ADC_Init+0x124>
 8001bca:	6899      	ldr	r1, [r3, #8]
 8001bcc:	f021 6170 	bic.w	r1, r1, #251658240	; 0xf000000
 8001bd0:	6099      	str	r1, [r3, #8]
 8001bd2:	6899      	ldr	r1, [r3, #8]
 8001bd4:	430a      	orrs	r2, r1
 8001bd6:	609a      	str	r2, [r3, #8]
 8001bd8:	689a      	ldr	r2, [r3, #8]
 8001bda:	6ae1      	ldr	r1, [r4, #44]	; 0x2c
 8001bdc:	f022 5240 	bic.w	r2, r2, #805306368	; 0x30000000
 8001be0:	609a      	str	r2, [r3, #8]
 8001be2:	689a      	ldr	r2, [r3, #8]
 8001be4:	430a      	orrs	r2, r1
 8001be6:	609a      	str	r2, [r3, #8]
 8001be8:	689a      	ldr	r2, [r3, #8]
 8001bea:	f022 0202 	bic.w	r2, r2, #2
 8001bee:	609a      	str	r2, [r3, #8]
 8001bf0:	689a      	ldr	r2, [r3, #8]
 8001bf2:	7e21      	ldrb	r1, [r4, #24]
 8001bf4:	ea42 0241 	orr.w	r2, r2, r1, lsl #1
 8001bf8:	609a      	str	r2, [r3, #8]
 8001bfa:	f894 2020 	ldrb.w	r2, [r4, #32]
 8001bfe:	2a00      	cmp	r2, #0
 8001c00:	d03e      	beq.n	8001c80 <HAL_ADC_Init+0x134>
 8001c02:	685a      	ldr	r2, [r3, #4]
 8001c04:	6a61      	ldr	r1, [r4, #36]	; 0x24
 8001c06:	f442 6200 	orr.w	r2, r2, #2048	; 0x800
 8001c0a:	605a      	str	r2, [r3, #4]
 8001c0c:	685a      	ldr	r2, [r3, #4]
 8001c0e:	f422 4260 	bic.w	r2, r2, #57344	; 0xe000
 8001c12:	605a      	str	r2, [r3, #4]
 8001c14:	685a      	ldr	r2, [r3, #4]
 8001c16:	3901      	subs	r1, #1
 8001c18:	ea42 3241 	orr.w	r2, r2, r1, lsl #13
 8001c1c:	605a      	str	r2, [r3, #4]
 8001c1e:	6ada      	ldr	r2, [r3, #44]	; 0x2c
 8001c20:	69e1      	ldr	r1, [r4, #28]
 8001c22:	f422 0270 	bic.w	r2, r2, #15728640	; 0xf00000
 8001c26:	62da      	str	r2, [r3, #44]	; 0x2c
 8001c28:	6ada      	ldr	r2, [r3, #44]	; 0x2c
 8001c2a:	3901      	subs	r1, #1
 8001c2c:	ea42 5201 	orr.w	r2, r2, r1, lsl #20
 8001c30:	62da      	str	r2, [r3, #44]	; 0x2c
 8001c32:	689a      	ldr	r2, [r3, #8]
 8001c34:	f422 7200 	bic.w	r2, r2, #512	; 0x200
 8001c38:	609a      	str	r2, [r3, #8]
 8001c3a:	689a      	ldr	r2, [r3, #8]
 8001c3c:	f894 1030 	ldrb.w	r1, [r4, #48]	; 0x30
 8001c40:	ea42 2241 	orr.w	r2, r2, r1, lsl #9
 8001c44:	609a      	str	r2, [r3, #8]
 8001c46:	689a      	ldr	r2, [r3, #8]
 8001c48:	6961      	ldr	r1, [r4, #20]
 8001c4a:	f422 6280 	bic.w	r2, r2, #1024	; 0x400
 8001c4e:	609a      	str	r2, [r3, #8]
 8001c50:	689a      	ldr	r2, [r3, #8]
 8001c52:	2000      	movs	r0, #0
 8001c54:	ea42 2281 	orr.w	r2, r2, r1, lsl #10
 8001c58:	609a      	str	r2, [r3, #8]
 8001c5a:	6460      	str	r0, [r4, #68]	; 0x44
 8001c5c:	6c23      	ldr	r3, [r4, #64]	; 0x40
 8001c5e:	f023 0303 	bic.w	r3, r3, #3
 8001c62:	f043 0301 	orr.w	r3, r3, #1
 8001c66:	6423      	str	r3, [r4, #64]	; 0x40
 8001c68:	2300      	movs	r3, #0
 8001c6a:	f884 303c 	strb.w	r3, [r4, #60]	; 0x3c
 8001c6e:	bd38      	pop	{r3, r4, r5, pc}
 8001c70:	689a      	ldr	r2, [r3, #8]
 8001c72:	f022 6270 	bic.w	r2, r2, #251658240	; 0xf000000
 8001c76:	609a      	str	r2, [r3, #8]
 8001c78:	689a      	ldr	r2, [r3, #8]
 8001c7a:	f022 5240 	bic.w	r2, r2, #805306368	; 0x30000000
 8001c7e:	e7b2      	b.n	8001be6 <HAL_ADC_Init+0x9a>
 8001c80:	685a      	ldr	r2, [r3, #4]
 8001c82:	f422 6200 	bic.w	r2, r2, #2048	; 0x800
 8001c86:	e7c9      	b.n	8001c1c <HAL_ADC_Init+0xd0>
 8001c88:	2001      	movs	r0, #1
 8001c8a:	e7ed      	b.n	8001c68 <HAL_ADC_Init+0x11c>
 8001c8c:	2001      	movs	r0, #1
 8001c8e:	e7ee      	b.n	8001c6e <HAL_ADC_Init+0x122>
 8001c90:	40012300 	.word	0x40012300
 8001c94:	0f000001 	.word	0x0f000001

08001c98 <HAL_ADC_Start>:
 8001c98:	b513      	push	{r0, r1, r4, lr}
 8001c9a:	2300      	movs	r3, #0
 8001c9c:	9301      	str	r3, [sp, #4]
 8001c9e:	f890 303c 	ldrb.w	r3, [r0, #60]	; 0x3c
 8001ca2:	2b01      	cmp	r3, #1
 8001ca4:	d06c      	beq.n	8001d80 <HAL_ADC_Start+0xe8>
 8001ca6:	2301      	movs	r3, #1
 8001ca8:	6802      	ldr	r2, [r0, #0]
 8001caa:	f880 303c 	strb.w	r3, [r0, #60]	; 0x3c
 8001cae:	6893      	ldr	r3, [r2, #8]
 8001cb0:	07d9      	lsls	r1, r3, #31
 8001cb2:	d50c      	bpl.n	8001cce <HAL_ADC_Start+0x36>
 8001cb4:	6893      	ldr	r3, [r2, #8]
 8001cb6:	f013 0301 	ands.w	r3, r3, #1
 8001cba:	d11a      	bne.n	8001cf2 <HAL_ADC_Start+0x5a>
 8001cbc:	6c02      	ldr	r2, [r0, #64]	; 0x40
 8001cbe:	f042 0210 	orr.w	r2, r2, #16
 8001cc2:	6402      	str	r2, [r0, #64]	; 0x40
 8001cc4:	6c42      	ldr	r2, [r0, #68]	; 0x44
 8001cc6:	f042 0201 	orr.w	r2, r2, #1
 8001cca:	6442      	str	r2, [r0, #68]	; 0x44
 8001ccc:	e056      	b.n	8001d7c <HAL_ADC_Start+0xe4>
 8001cce:	6893      	ldr	r3, [r2, #8]
 8001cd0:	492d      	ldr	r1, [pc, #180]	; (8001d88 <HAL_ADC_Start+0xf0>)
 8001cd2:	f043 0301 	orr.w	r3, r3, #1
 8001cd6:	6093      	str	r3, [r2, #8]
 8001cd8:	4b2c      	ldr	r3, [pc, #176]	; (8001d8c <HAL_ADC_Start+0xf4>)
 8001cda:	681b      	ldr	r3, [r3, #0]
 8001cdc:	fbb3 f3f1 	udiv	r3, r3, r1
 8001ce0:	eb03 0343 	add.w	r3, r3, r3, lsl #1
 8001ce4:	9301      	str	r3, [sp, #4]
 8001ce6:	9b01      	ldr	r3, [sp, #4]
 8001ce8:	2b00      	cmp	r3, #0
 8001cea:	d0e3      	beq.n	8001cb4 <HAL_ADC_Start+0x1c>
 8001cec:	9b01      	ldr	r3, [sp, #4]
 8001cee:	3b01      	subs	r3, #1
 8001cf0:	e7f8      	b.n	8001ce4 <HAL_ADC_Start+0x4c>
 8001cf2:	6c03      	ldr	r3, [r0, #64]	; 0x40
 8001cf4:	4c26      	ldr	r4, [pc, #152]	; (8001d90 <HAL_ADC_Start+0xf8>)
 8001cf6:	f423 63e0 	bic.w	r3, r3, #1792	; 0x700
 8001cfa:	f023 0301 	bic.w	r3, r3, #1
 8001cfe:	f443 7380 	orr.w	r3, r3, #256	; 0x100
 8001d02:	6403      	str	r3, [r0, #64]	; 0x40
 8001d04:	6853      	ldr	r3, [r2, #4]
 8001d06:	055b      	lsls	r3, r3, #21
 8001d08:	bf41      	itttt	mi
 8001d0a:	6c03      	ldrmi	r3, [r0, #64]	; 0x40
 8001d0c:	f423 5340 	bicmi.w	r3, r3, #12288	; 0x3000
 8001d10:	f443 5380 	orrmi.w	r3, r3, #4096	; 0x1000
 8001d14:	6403      	strmi	r3, [r0, #64]	; 0x40
 8001d16:	6c03      	ldr	r3, [r0, #64]	; 0x40
 8001d18:	f413 5380 	ands.w	r3, r3, #4096	; 0x1000
 8001d1c:	bf1c      	itt	ne
 8001d1e:	6c43      	ldrne	r3, [r0, #68]	; 0x44
 8001d20:	f023 0306 	bicne.w	r3, r3, #6
 8001d24:	6443      	str	r3, [r0, #68]	; 0x44
 8001d26:	f06f 0122 	mvn.w	r1, #34	; 0x22
 8001d2a:	2300      	movs	r3, #0
 8001d2c:	f880 303c 	strb.w	r3, [r0, #60]	; 0x3c
 8001d30:	6011      	str	r1, [r2, #0]
 8001d32:	4918      	ldr	r1, [pc, #96]	; (8001d94 <HAL_ADC_Start+0xfc>)
 8001d34:	6848      	ldr	r0, [r1, #4]
 8001d36:	f010 001f 	ands.w	r0, r0, #31
 8001d3a:	d119      	bne.n	8001d70 <HAL_ADC_Start+0xd8>
 8001d3c:	42a2      	cmp	r2, r4
 8001d3e:	d006      	beq.n	8001d4e <HAL_ADC_Start+0xb6>
 8001d40:	4b15      	ldr	r3, [pc, #84]	; (8001d98 <HAL_ADC_Start+0x100>)
 8001d42:	429a      	cmp	r2, r3
 8001d44:	d10d      	bne.n	8001d62 <HAL_ADC_Start+0xca>
 8001d46:	684b      	ldr	r3, [r1, #4]
 8001d48:	f013 0f1f 	tst.w	r3, #31
 8001d4c:	d107      	bne.n	8001d5e <HAL_ADC_Start+0xc6>
 8001d4e:	6890      	ldr	r0, [r2, #8]
 8001d50:	f010 5040 	ands.w	r0, r0, #805306368	; 0x30000000
 8001d54:	d116      	bne.n	8001d84 <HAL_ADC_Start+0xec>
 8001d56:	6893      	ldr	r3, [r2, #8]
 8001d58:	f043 4380 	orr.w	r3, r3, #1073741824	; 0x40000000
 8001d5c:	6093      	str	r3, [r2, #8]
 8001d5e:	b002      	add	sp, #8
 8001d60:	bd10      	pop	{r4, pc}
 8001d62:	4b0e      	ldr	r3, [pc, #56]	; (8001d9c <HAL_ADC_Start+0x104>)
 8001d64:	429a      	cmp	r2, r3
 8001d66:	d1fa      	bne.n	8001d5e <HAL_ADC_Start+0xc6>
 8001d68:	684b      	ldr	r3, [r1, #4]
 8001d6a:	f013 0f10 	tst.w	r3, #16
 8001d6e:	e7ed      	b.n	8001d4c <HAL_ADC_Start+0xb4>
 8001d70:	42a2      	cmp	r2, r4
 8001d72:	d107      	bne.n	8001d84 <HAL_ADC_Start+0xec>
 8001d74:	6890      	ldr	r0, [r2, #8]
 8001d76:	f010 5040 	ands.w	r0, r0, #805306368	; 0x30000000
 8001d7a:	d0ec      	beq.n	8001d56 <HAL_ADC_Start+0xbe>
 8001d7c:	4618      	mov	r0, r3
 8001d7e:	e7ee      	b.n	8001d5e <HAL_ADC_Start+0xc6>
 8001d80:	2002      	movs	r0, #2
 8001d82:	e7ec      	b.n	8001d5e <HAL_ADC_Start+0xc6>
 8001d84:	2000      	movs	r0, #0
 8001d86:	e7ea      	b.n	8001d5e <HAL_ADC_Start+0xc6>
 8001d88:	000f4240 	.word	0x000f4240
 8001d8c:	20000000 	.word	0x20000000
 8001d90:	40012000 	.word	0x40012000
 8001d94:	40012300 	.word	0x40012300
 8001d98:	40012100 	.word	0x40012100
 8001d9c:	40012200 	.word	0x40012200

08001da0 <HAL_ADC_Start_DMA>:
 8001da0:	b573      	push	{r0, r1, r4, r5, r6, lr}
 8001da2:	4613      	mov	r3, r2
 8001da4:	2200      	movs	r2, #0
 8001da6:	9201      	str	r2, [sp, #4]
 8001da8:	f890 203c 	ldrb.w	r2, [r0, #60]	; 0x3c
 8001dac:	2a01      	cmp	r2, #1
 8001dae:	4605      	mov	r5, r0
 8001db0:	f000 808c 	beq.w	8001ecc <HAL_ADC_Start_DMA+0x12c>
 8001db4:	2201      	movs	r2, #1
 8001db6:	6806      	ldr	r6, [r0, #0]
 8001db8:	f880 203c 	strb.w	r2, [r0, #60]	; 0x3c
 8001dbc:	68b2      	ldr	r2, [r6, #8]
 8001dbe:	07d4      	lsls	r4, r2, #31
 8001dc0:	d554      	bpl.n	8001e6c <HAL_ADC_Start_DMA+0xcc>
 8001dc2:	68b2      	ldr	r2, [r6, #8]
 8001dc4:	05d0      	lsls	r0, r2, #23
 8001dc6:	d464      	bmi.n	8001e92 <HAL_ADC_Start_DMA+0xf2>
 8001dc8:	68b4      	ldr	r4, [r6, #8]
 8001dca:	f014 0401 	ands.w	r4, r4, #1
 8001dce:	d074      	beq.n	8001eba <HAL_ADC_Start_DMA+0x11a>
 8001dd0:	6c28      	ldr	r0, [r5, #64]	; 0x40
 8001dd2:	f420 60e0 	bic.w	r0, r0, #1792	; 0x700
 8001dd6:	f020 0001 	bic.w	r0, r0, #1
 8001dda:	f440 7080 	orr.w	r0, r0, #256	; 0x100
 8001dde:	6428      	str	r0, [r5, #64]	; 0x40
 8001de0:	6872      	ldr	r2, [r6, #4]
 8001de2:	0552      	lsls	r2, r2, #21
 8001de4:	bf41      	itttt	mi
 8001de6:	6c28      	ldrmi	r0, [r5, #64]	; 0x40
 8001de8:	f420 5040 	bicmi.w	r0, r0, #12288	; 0x3000
 8001dec:	f440 5080 	orrmi.w	r0, r0, #4096	; 0x1000
 8001df0:	6428      	strmi	r0, [r5, #64]	; 0x40
 8001df2:	6c2a      	ldr	r2, [r5, #64]	; 0x40
 8001df4:	6ba8      	ldr	r0, [r5, #56]	; 0x38
 8001df6:	f412 5280 	ands.w	r2, r2, #4096	; 0x1000
 8001dfa:	bf1c      	itt	ne
 8001dfc:	6c6a      	ldrne	r2, [r5, #68]	; 0x44
 8001dfe:	f022 0206 	bicne.w	r2, r2, #6
 8001e02:	646a      	str	r2, [r5, #68]	; 0x44
 8001e04:	2400      	movs	r4, #0
 8001e06:	4a33      	ldr	r2, [pc, #204]	; (8001ed4 <HAL_ADC_Start_DMA+0x134>)
 8001e08:	f885 403c 	strb.w	r4, [r5, #60]	; 0x3c
 8001e0c:	63c2      	str	r2, [r0, #60]	; 0x3c
 8001e0e:	4a32      	ldr	r2, [pc, #200]	; (8001ed8 <HAL_ADC_Start_DMA+0x138>)
 8001e10:	6402      	str	r2, [r0, #64]	; 0x40
 8001e12:	4a32      	ldr	r2, [pc, #200]	; (8001edc <HAL_ADC_Start_DMA+0x13c>)
 8001e14:	64c2      	str	r2, [r0, #76]	; 0x4c
 8001e16:	f06f 0222 	mvn.w	r2, #34	; 0x22
 8001e1a:	6032      	str	r2, [r6, #0]
 8001e1c:	6872      	ldr	r2, [r6, #4]
 8001e1e:	f042 6280 	orr.w	r2, r2, #67108864	; 0x4000000
 8001e22:	6072      	str	r2, [r6, #4]
 8001e24:	68b2      	ldr	r2, [r6, #8]
 8001e26:	f442 7280 	orr.w	r2, r2, #256	; 0x100
 8001e2a:	60b2      	str	r2, [r6, #8]
 8001e2c:	460a      	mov	r2, r1
 8001e2e:	f106 014c 	add.w	r1, r6, #76	; 0x4c
 8001e32:	f000 fa3b 	bl	80022ac <HAL_DMA_Start_IT>
 8001e36:	4a2a      	ldr	r2, [pc, #168]	; (8001ee0 <HAL_ADC_Start_DMA+0x140>)
 8001e38:	682b      	ldr	r3, [r5, #0]
 8001e3a:	6850      	ldr	r0, [r2, #4]
 8001e3c:	4929      	ldr	r1, [pc, #164]	; (8001ee4 <HAL_ADC_Start_DMA+0x144>)
 8001e3e:	f010 001f 	ands.w	r0, r0, #31
 8001e42:	d132      	bne.n	8001eaa <HAL_ADC_Start_DMA+0x10a>
 8001e44:	428b      	cmp	r3, r1
 8001e46:	d007      	beq.n	8001e58 <HAL_ADC_Start_DMA+0xb8>
 8001e48:	f501 7180 	add.w	r1, r1, #256	; 0x100
 8001e4c:	428b      	cmp	r3, r1
 8001e4e:	d125      	bne.n	8001e9c <HAL_ADC_Start_DMA+0xfc>
 8001e50:	6852      	ldr	r2, [r2, #4]
 8001e52:	f012 0f1f 	tst.w	r2, #31
 8001e56:	d107      	bne.n	8001e68 <HAL_ADC_Start_DMA+0xc8>
 8001e58:	6898      	ldr	r0, [r3, #8]
 8001e5a:	f010 5040 	ands.w	r0, r0, #805306368	; 0x30000000
 8001e5e:	d137      	bne.n	8001ed0 <HAL_ADC_Start_DMA+0x130>
 8001e60:	689a      	ldr	r2, [r3, #8]
 8001e62:	f042 4280 	orr.w	r2, r2, #1073741824	; 0x40000000
 8001e66:	609a      	str	r2, [r3, #8]
 8001e68:	b002      	add	sp, #8
 8001e6a:	bd70      	pop	{r4, r5, r6, pc}
 8001e6c:	68b2      	ldr	r2, [r6, #8]
 8001e6e:	f042 0201 	orr.w	r2, r2, #1
 8001e72:	60b2      	str	r2, [r6, #8]
 8001e74:	4a1c      	ldr	r2, [pc, #112]	; (8001ee8 <HAL_ADC_Start_DMA+0x148>)
 8001e76:	6810      	ldr	r0, [r2, #0]
 8001e78:	4a1c      	ldr	r2, [pc, #112]	; (8001eec <HAL_ADC_Start_DMA+0x14c>)
 8001e7a:	fbb0 f0f2 	udiv	r0, r0, r2
 8001e7e:	eb00 0040 	add.w	r0, r0, r0, lsl #1
 8001e82:	9001      	str	r0, [sp, #4]
 8001e84:	9a01      	ldr	r2, [sp, #4]
 8001e86:	2a00      	cmp	r2, #0
 8001e88:	d09b      	beq.n	8001dc2 <HAL_ADC_Start_DMA+0x22>
 8001e8a:	9a01      	ldr	r2, [sp, #4]
 8001e8c:	3a01      	subs	r2, #1
 8001e8e:	9201      	str	r2, [sp, #4]
 8001e90:	e7f8      	b.n	8001e84 <HAL_ADC_Start_DMA+0xe4>
 8001e92:	68b2      	ldr	r2, [r6, #8]
 8001e94:	f422 7280 	bic.w	r2, r2, #256	; 0x100
 8001e98:	60b2      	str	r2, [r6, #8]
 8001e9a:	e795      	b.n	8001dc8 <HAL_ADC_Start_DMA+0x28>
 8001e9c:	4914      	ldr	r1, [pc, #80]	; (8001ef0 <HAL_ADC_Start_DMA+0x150>)
 8001e9e:	428b      	cmp	r3, r1
 8001ea0:	d1e2      	bne.n	8001e68 <HAL_ADC_Start_DMA+0xc8>
 8001ea2:	6852      	ldr	r2, [r2, #4]
 8001ea4:	f012 0f10 	tst.w	r2, #16
 8001ea8:	e7d5      	b.n	8001e56 <HAL_ADC_Start_DMA+0xb6>
 8001eaa:	428b      	cmp	r3, r1
 8001eac:	d110      	bne.n	8001ed0 <HAL_ADC_Start_DMA+0x130>
 8001eae:	6898      	ldr	r0, [r3, #8]
 8001eb0:	f010 5040 	ands.w	r0, r0, #805306368	; 0x30000000
 8001eb4:	d0d4      	beq.n	8001e60 <HAL_ADC_Start_DMA+0xc0>
 8001eb6:	4620      	mov	r0, r4
 8001eb8:	e7d6      	b.n	8001e68 <HAL_ADC_Start_DMA+0xc8>
 8001eba:	6c2b      	ldr	r3, [r5, #64]	; 0x40
 8001ebc:	f043 0310 	orr.w	r3, r3, #16
 8001ec0:	642b      	str	r3, [r5, #64]	; 0x40
 8001ec2:	6c6b      	ldr	r3, [r5, #68]	; 0x44
 8001ec4:	f043 0301 	orr.w	r3, r3, #1
 8001ec8:	646b      	str	r3, [r5, #68]	; 0x44
 8001eca:	e7f4      	b.n	8001eb6 <HAL_ADC_Start_DMA+0x116>
 8001ecc:	2002      	movs	r0, #2
 8001ece:	e7cb      	b.n	8001e68 <HAL_ADC_Start_DMA+0xc8>
 8001ed0:	2000      	movs	r0, #0
 8001ed2:	e7c9      	b.n	8001e68 <HAL_ADC_Start_DMA+0xc8>
 8001ed4:	08001f21 	.word	0x08001f21
 8001ed8:	08001eff 	.word	0x08001eff
 8001edc:	08001f0b 	.word	0x08001f0b
 8001ee0:	40012300 	.word	0x40012300
 8001ee4:	40012000 	.word	0x40012000
 8001ee8:	20000000 	.word	0x20000000
 8001eec:	000f4240 	.word	0x000f4240
 8001ef0:	40012200 	.word	0x40012200

08001ef4 <HAL_ADC_GetValue>:
 8001ef4:	6803      	ldr	r3, [r0, #0]
 8001ef6:	6cd8      	ldr	r0, [r3, #76]	; 0x4c
 8001ef8:	4770      	bx	lr

08001efa <HAL_ADC_ConvCpltCallback>:
 8001efa:	4770      	bx	lr

08001efc <HAL_ADC_ConvHalfCpltCallback>:
 8001efc:	4770      	bx	lr

08001efe <ADC_DMAHalfConvCplt>:
 8001efe:	b508      	push	{r3, lr}
 8001f00:	6b80      	ldr	r0, [r0, #56]	; 0x38
 8001f02:	f7ff fffb 	bl	8001efc <HAL_ADC_ConvHalfCpltCallback>
 8001f06:	bd08      	pop	{r3, pc}

08001f08 <HAL_ADC_ErrorCallback>:
 8001f08:	4770      	bx	lr

08001f0a <ADC_DMAError>:
 8001f0a:	6b80      	ldr	r0, [r0, #56]	; 0x38
 8001f0c:	b508      	push	{r3, lr}
 8001f0e:	2340      	movs	r3, #64	; 0x40
 8001f10:	6403      	str	r3, [r0, #64]	; 0x40
 8001f12:	6c43      	ldr	r3, [r0, #68]	; 0x44
 8001f14:	f043 0304 	orr.w	r3, r3, #4
 8001f18:	6443      	str	r3, [r0, #68]	; 0x44
 8001f1a:	f7ff fff5 	bl	8001f08 <HAL_ADC_ErrorCallback>
 8001f1e:	bd08      	pop	{r3, pc}

08001f20 <ADC_DMAConvCplt>:
 8001f20:	6b83      	ldr	r3, [r0, #56]	; 0x38
 8001f22:	6c1a      	ldr	r2, [r3, #64]	; 0x40
 8001f24:	f012 0f50 	tst.w	r2, #80	; 0x50
 8001f28:	b510      	push	{r4, lr}
 8001f2a:	6c1a      	ldr	r2, [r3, #64]	; 0x40
 8001f2c:	d123      	bne.n	8001f76 <ADC_DMAConvCplt+0x56>
 8001f2e:	f442 7200 	orr.w	r2, r2, #512	; 0x200
 8001f32:	641a      	str	r2, [r3, #64]	; 0x40
 8001f34:	681a      	ldr	r2, [r3, #0]
 8001f36:	6891      	ldr	r1, [r2, #8]
 8001f38:	f011 5f40 	tst.w	r1, #805306368	; 0x30000000
 8001f3c:	d117      	bne.n	8001f6e <ADC_DMAConvCplt+0x4e>
 8001f3e:	7e19      	ldrb	r1, [r3, #24]
 8001f40:	b9a9      	cbnz	r1, 8001f6e <ADC_DMAConvCplt+0x4e>
 8001f42:	6ad1      	ldr	r1, [r2, #44]	; 0x2c
 8001f44:	f411 0f70 	tst.w	r1, #15728640	; 0xf00000
 8001f48:	d002      	beq.n	8001f50 <ADC_DMAConvCplt+0x30>
 8001f4a:	6891      	ldr	r1, [r2, #8]
 8001f4c:	0548      	lsls	r0, r1, #21
 8001f4e:	d40e      	bmi.n	8001f6e <ADC_DMAConvCplt+0x4e>
 8001f50:	6851      	ldr	r1, [r2, #4]
 8001f52:	f021 0120 	bic.w	r1, r1, #32
 8001f56:	6051      	str	r1, [r2, #4]
 8001f58:	6c1a      	ldr	r2, [r3, #64]	; 0x40
 8001f5a:	f422 7280 	bic.w	r2, r2, #256	; 0x100
 8001f5e:	641a      	str	r2, [r3, #64]	; 0x40
 8001f60:	6c1a      	ldr	r2, [r3, #64]	; 0x40
 8001f62:	04d1      	lsls	r1, r2, #19
 8001f64:	bf5e      	ittt	pl
 8001f66:	6c1a      	ldrpl	r2, [r3, #64]	; 0x40
 8001f68:	f042 0201 	orrpl.w	r2, r2, #1
 8001f6c:	641a      	strpl	r2, [r3, #64]	; 0x40
 8001f6e:	4618      	mov	r0, r3
 8001f70:	f7ff ffc3 	bl	8001efa <HAL_ADC_ConvCpltCallback>
 8001f74:	bd10      	pop	{r4, pc}
 8001f76:	06d2      	lsls	r2, r2, #27
 8001f78:	d503      	bpl.n	8001f82 <ADC_DMAConvCplt+0x62>
 8001f7a:	4618      	mov	r0, r3
 8001f7c:	f7ff ffc4 	bl	8001f08 <HAL_ADC_ErrorCallback>
 8001f80:	e7f8      	b.n	8001f74 <ADC_DMAConvCplt+0x54>
 8001f82:	6b9b      	ldr	r3, [r3, #56]	; 0x38
 8001f84:	e8bd 4010 	ldmia.w	sp!, {r4, lr}
 8001f88:	6cdb      	ldr	r3, [r3, #76]	; 0x4c
 8001f8a:	4718      	bx	r3

08001f8c <HAL_ADC_ConfigChannel>:
 8001f8c:	b5f7      	push	{r0, r1, r2, r4, r5, r6, r7, lr}
 8001f8e:	2300      	movs	r3, #0
 8001f90:	9301      	str	r3, [sp, #4]
 8001f92:	f890 303c 	ldrb.w	r3, [r0, #60]	; 0x3c
 8001f96:	2b01      	cmp	r3, #1
 8001f98:	d066      	beq.n	8002068 <HAL_ADC_ConfigChannel+0xdc>
 8001f9a:	2301      	movs	r3, #1
 8001f9c:	f880 303c 	strb.w	r3, [r0, #60]	; 0x3c
 8001fa0:	680d      	ldr	r5, [r1, #0]
 8001fa2:	6803      	ldr	r3, [r0, #0]
 8001fa4:	688e      	ldr	r6, [r1, #8]
 8001fa6:	2d09      	cmp	r5, #9
 8001fa8:	b2ac      	uxth	r4, r5
 8001faa:	d931      	bls.n	8002010 <HAL_ADC_ConfigChannel+0x84>
 8001fac:	eb04 0244 	add.w	r2, r4, r4, lsl #1
 8001fb0:	68df      	ldr	r7, [r3, #12]
 8001fb2:	3a1e      	subs	r2, #30
 8001fb4:	f04f 0c07 	mov.w	ip, #7
 8001fb8:	fa0c fc02 	lsl.w	ip, ip, r2
 8001fbc:	ea27 070c 	bic.w	r7, r7, ip
 8001fc0:	60df      	str	r7, [r3, #12]
 8001fc2:	68df      	ldr	r7, [r3, #12]
 8001fc4:	fa06 f202 	lsl.w	r2, r6, r2
 8001fc8:	433a      	orrs	r2, r7
 8001fca:	60da      	str	r2, [r3, #12]
 8001fcc:	6849      	ldr	r1, [r1, #4]
 8001fce:	2906      	cmp	r1, #6
 8001fd0:	eb01 0281 	add.w	r2, r1, r1, lsl #2
 8001fd4:	d82c      	bhi.n	8002030 <HAL_ADC_ConfigChannel+0xa4>
 8001fd6:	6b59      	ldr	r1, [r3, #52]	; 0x34
 8001fd8:	3a05      	subs	r2, #5
 8001fda:	261f      	movs	r6, #31
 8001fdc:	4096      	lsls	r6, r2
 8001fde:	ea21 0106 	bic.w	r1, r1, r6
 8001fe2:	6359      	str	r1, [r3, #52]	; 0x34
 8001fe4:	6b59      	ldr	r1, [r3, #52]	; 0x34
 8001fe6:	fa04 f202 	lsl.w	r2, r4, r2
 8001fea:	430a      	orrs	r2, r1
 8001fec:	635a      	str	r2, [r3, #52]	; 0x34
 8001fee:	4a2c      	ldr	r2, [pc, #176]	; (80020a0 <HAL_ADC_ConfigChannel+0x114>)
 8001ff0:	4293      	cmp	r3, r2
 8001ff2:	d107      	bne.n	8002004 <HAL_ADC_ConfigChannel+0x78>
 8001ff4:	2d12      	cmp	r5, #18
 8001ff6:	d139      	bne.n	800206c <HAL_ADC_ConfigChannel+0xe0>
 8001ff8:	f8d2 3304 	ldr.w	r3, [r2, #772]	; 0x304
 8001ffc:	f443 0380 	orr.w	r3, r3, #4194304	; 0x400000
 8002000:	f8c2 3304 	str.w	r3, [r2, #772]	; 0x304
 8002004:	2300      	movs	r3, #0
 8002006:	f880 303c 	strb.w	r3, [r0, #60]	; 0x3c
 800200a:	4618      	mov	r0, r3
 800200c:	b003      	add	sp, #12
 800200e:	bdf0      	pop	{r4, r5, r6, r7, pc}
 8002010:	691f      	ldr	r7, [r3, #16]
 8002012:	eb05 0245 	add.w	r2, r5, r5, lsl #1
 8002016:	f04f 0c07 	mov.w	ip, #7
 800201a:	fa0c fc02 	lsl.w	ip, ip, r2
 800201e:	ea27 070c 	bic.w	r7, r7, ip
 8002022:	611f      	str	r7, [r3, #16]
 8002024:	691f      	ldr	r7, [r3, #16]
 8002026:	fa06 f202 	lsl.w	r2, r6, r2
 800202a:	433a      	orrs	r2, r7
 800202c:	611a      	str	r2, [r3, #16]
 800202e:	e7cd      	b.n	8001fcc <HAL_ADC_ConfigChannel+0x40>
 8002030:	290c      	cmp	r1, #12
 8002032:	f04f 011f 	mov.w	r1, #31
 8002036:	d80b      	bhi.n	8002050 <HAL_ADC_ConfigChannel+0xc4>
 8002038:	6b1e      	ldr	r6, [r3, #48]	; 0x30
 800203a:	3a23      	subs	r2, #35	; 0x23
 800203c:	4091      	lsls	r1, r2
 800203e:	ea26 0101 	bic.w	r1, r6, r1
 8002042:	6319      	str	r1, [r3, #48]	; 0x30
 8002044:	6b19      	ldr	r1, [r3, #48]	; 0x30
 8002046:	fa04 f202 	lsl.w	r2, r4, r2
 800204a:	430a      	orrs	r2, r1
 800204c:	631a      	str	r2, [r3, #48]	; 0x30
 800204e:	e7ce      	b.n	8001fee <HAL_ADC_ConfigChannel+0x62>
 8002050:	6ade      	ldr	r6, [r3, #44]	; 0x2c
 8002052:	3a41      	subs	r2, #65	; 0x41
 8002054:	4091      	lsls	r1, r2
 8002056:	ea26 0101 	bic.w	r1, r6, r1
 800205a:	62d9      	str	r1, [r3, #44]	; 0x2c
 800205c:	6ad9      	ldr	r1, [r3, #44]	; 0x2c
 800205e:	fa04 f202 	lsl.w	r2, r4, r2
 8002062:	430a      	orrs	r2, r1
 8002064:	62da      	str	r2, [r3, #44]	; 0x2c
 8002066:	e7c2      	b.n	8001fee <HAL_ADC_ConfigChannel+0x62>
 8002068:	2002      	movs	r0, #2
 800206a:	e7cf      	b.n	800200c <HAL_ADC_ConfigChannel+0x80>
 800206c:	f1a5 0310 	sub.w	r3, r5, #16
 8002070:	2b01      	cmp	r3, #1
 8002072:	d8c7      	bhi.n	8002004 <HAL_ADC_ConfigChannel+0x78>
 8002074:	4a0b      	ldr	r2, [pc, #44]	; (80020a4 <HAL_ADC_ConfigChannel+0x118>)
 8002076:	6853      	ldr	r3, [r2, #4]
 8002078:	2d10      	cmp	r5, #16
 800207a:	f443 0300 	orr.w	r3, r3, #8388608	; 0x800000
 800207e:	6053      	str	r3, [r2, #4]
 8002080:	d1c0      	bne.n	8002004 <HAL_ADC_ConfigChannel+0x78>
 8002082:	4b09      	ldr	r3, [pc, #36]	; (80020a8 <HAL_ADC_ConfigChannel+0x11c>)
 8002084:	4a09      	ldr	r2, [pc, #36]	; (80020ac <HAL_ADC_ConfigChannel+0x120>)
 8002086:	681b      	ldr	r3, [r3, #0]
 8002088:	fbb3 f2f2 	udiv	r2, r3, r2
 800208c:	230a      	movs	r3, #10
 800208e:	4353      	muls	r3, r2
 8002090:	9301      	str	r3, [sp, #4]
 8002092:	9b01      	ldr	r3, [sp, #4]
 8002094:	2b00      	cmp	r3, #0
 8002096:	d0b5      	beq.n	8002004 <HAL_ADC_ConfigChannel+0x78>
 8002098:	9b01      	ldr	r3, [sp, #4]
 800209a:	3b01      	subs	r3, #1
 800209c:	e7f8      	b.n	8002090 <HAL_ADC_ConfigChannel+0x104>
 800209e:	bf00      	nop
 80020a0:	40012000 	.word	0x40012000
 80020a4:	40012300 	.word	0x40012300
 80020a8:	20000000 	.word	0x20000000
 80020ac:	000f4240 	.word	0x000f4240

080020b0 <HAL_NVIC_SetPriorityGrouping>:
 80020b0:	4907      	ldr	r1, [pc, #28]	; (80020d0 <HAL_NVIC_SetPriorityGrouping+0x20>)
 80020b2:	68ca      	ldr	r2, [r1, #12]
 80020b4:	f422 62e0 	bic.w	r2, r2, #1792	; 0x700
 80020b8:	0203      	lsls	r3, r0, #8
 80020ba:	0412      	lsls	r2, r2, #16
 80020bc:	f403 63e0 	and.w	r3, r3, #1792	; 0x700
 80020c0:	0c12      	lsrs	r2, r2, #16
 80020c2:	4313      	orrs	r3, r2
 80020c4:	f043 63bf 	orr.w	r3, r3, #100139008	; 0x5f80000
 80020c8:	f443 3300 	orr.w	r3, r3, #131072	; 0x20000
 80020cc:	60cb      	str	r3, [r1, #12]
 80020ce:	4770      	bx	lr
 80020d0:	e000ed00 	.word	0xe000ed00

080020d4 <HAL_NVIC_SetPriority>:
 80020d4:	4b16      	ldr	r3, [pc, #88]	; (8002130 <HAL_NVIC_SetPriority+0x5c>)
 80020d6:	b530      	push	{r4, r5, lr}
 80020d8:	68dc      	ldr	r4, [r3, #12]
 80020da:	f3c4 2402 	ubfx	r4, r4, #8, #3
 80020de:	f1c4 0507 	rsb	r5, r4, #7
 80020e2:	1d23      	adds	r3, r4, #4
 80020e4:	2d04      	cmp	r5, #4
 80020e6:	bf28      	it	cs
 80020e8:	2504      	movcs	r5, #4
 80020ea:	2b06      	cmp	r3, #6
 80020ec:	f04f 33ff 	mov.w	r3, #4294967295
 80020f0:	bf8c      	ite	hi
 80020f2:	3c03      	subhi	r4, #3
 80020f4:	2400      	movls	r4, #0
 80020f6:	fa03 f505 	lsl.w	r5, r3, r5
 80020fa:	ea21 0105 	bic.w	r1, r1, r5
 80020fe:	40a3      	lsls	r3, r4
 8002100:	ea22 0203 	bic.w	r2, r2, r3
 8002104:	40a1      	lsls	r1, r4
 8002106:	2800      	cmp	r0, #0
 8002108:	ea41 0302 	orr.w	r3, r1, r2
 800210c:	bfac      	ite	ge
 800210e:	f100 4060 	addge.w	r0, r0, #3758096384	; 0xe0000000
 8002112:	4a08      	ldrlt	r2, [pc, #32]	; (8002134 <HAL_NVIC_SetPriority+0x60>)
 8002114:	ea4f 1303 	mov.w	r3, r3, lsl #4
 8002118:	bfb8      	it	lt
 800211a:	f000 000f 	andlt.w	r0, r0, #15
 800211e:	b2db      	uxtb	r3, r3
 8002120:	bfaa      	itet	ge
 8002122:	f500 4061 	addge.w	r0, r0, #57600	; 0xe100
 8002126:	5413      	strblt	r3, [r2, r0]
 8002128:	f880 3300 	strbge.w	r3, [r0, #768]	; 0x300
 800212c:	bd30      	pop	{r4, r5, pc}
 800212e:	bf00      	nop
 8002130:	e000ed00 	.word	0xe000ed00
 8002134:	e000ed14 	.word	0xe000ed14

08002138 <HAL_NVIC_EnableIRQ>:
 8002138:	2800      	cmp	r0, #0
 800213a:	db08      	blt.n	800214e <HAL_NVIC_EnableIRQ+0x16>
 800213c:	0942      	lsrs	r2, r0, #5
 800213e:	2301      	movs	r3, #1
 8002140:	f000 001f 	and.w	r0, r0, #31
 8002144:	fa03 f000 	lsl.w	r0, r3, r0
 8002148:	4b01      	ldr	r3, [pc, #4]	; (8002150 <HAL_NVIC_EnableIRQ+0x18>)
 800214a:	f843 0022 	str.w	r0, [r3, r2, lsl #2]
 800214e:	4770      	bx	lr
 8002150:	e000e100 	.word	0xe000e100

08002154 <HAL_SYSTICK_Config>:
 8002154:	3801      	subs	r0, #1
 8002156:	f1b0 7f80 	cmp.w	r0, #16777216	; 0x1000000
 800215a:	d20a      	bcs.n	8002172 <HAL_SYSTICK_Config+0x1e>
 800215c:	4b06      	ldr	r3, [pc, #24]	; (8002178 <HAL_SYSTICK_Config+0x24>)
 800215e:	4a07      	ldr	r2, [pc, #28]	; (800217c <HAL_SYSTICK_Config+0x28>)
 8002160:	6058      	str	r0, [r3, #4]
 8002162:	21f0      	movs	r1, #240	; 0xf0
 8002164:	f882 1023 	strb.w	r1, [r2, #35]	; 0x23
 8002168:	2000      	movs	r0, #0
 800216a:	2207      	movs	r2, #7
 800216c:	6098      	str	r0, [r3, #8]
 800216e:	601a      	str	r2, [r3, #0]
 8002170:	4770      	bx	lr
 8002172:	2001      	movs	r0, #1
 8002174:	4770      	bx	lr
 8002176:	bf00      	nop
 8002178:	e000e010 	.word	0xe000e010
 800217c:	e000ed00 	.word	0xe000ed00

08002180 <DMA_CalcBaseAndBitshift>:
 8002180:	6803      	ldr	r3, [r0, #0]
 8002182:	b510      	push	{r4, lr}
 8002184:	4c08      	ldr	r4, [pc, #32]	; (80021a8 <DMA_CalcBaseAndBitshift+0x28>)
 8002186:	4602      	mov	r2, r0
 8002188:	b2d9      	uxtb	r1, r3
 800218a:	3910      	subs	r1, #16
 800218c:	2018      	movs	r0, #24
 800218e:	fbb1 f0f0 	udiv	r0, r1, r0
 8002192:	5c20      	ldrb	r0, [r4, r0]
 8002194:	65d0      	str	r0, [r2, #92]	; 0x5c
 8002196:	f423 707f 	bic.w	r0, r3, #1020	; 0x3fc
 800219a:	f020 0003 	bic.w	r0, r0, #3
 800219e:	295f      	cmp	r1, #95	; 0x5f
 80021a0:	bf88      	it	hi
 80021a2:	3004      	addhi	r0, #4
 80021a4:	6590      	str	r0, [r2, #88]	; 0x58
 80021a6:	bd10      	pop	{r4, pc}
 80021a8:	08005bc7 	.word	0x08005bc7

080021ac <HAL_DMA_Init>:
 80021ac:	b570      	push	{r4, r5, r6, lr}
 80021ae:	4604      	mov	r4, r0
 80021b0:	f7ff fcb2 	bl	8001b18 <HAL_GetTick>
 80021b4:	4605      	mov	r5, r0
 80021b6:	2c00      	cmp	r4, #0
 80021b8:	d073      	beq.n	80022a2 <HAL_DMA_Init+0xf6>
 80021ba:	2302      	movs	r3, #2
 80021bc:	f884 3035 	strb.w	r3, [r4, #53]	; 0x35
 80021c0:	6822      	ldr	r2, [r4, #0]
 80021c2:	2300      	movs	r3, #0
 80021c4:	f884 3034 	strb.w	r3, [r4, #52]	; 0x34
 80021c8:	6813      	ldr	r3, [r2, #0]
 80021ca:	f023 0301 	bic.w	r3, r3, #1
 80021ce:	6013      	str	r3, [r2, #0]
 80021d0:	6821      	ldr	r1, [r4, #0]
 80021d2:	680b      	ldr	r3, [r1, #0]
 80021d4:	07d8      	lsls	r0, r3, #31
 80021d6:	d42f      	bmi.n	8002238 <HAL_DMA_Init+0x8c>
 80021d8:	680b      	ldr	r3, [r1, #0]
 80021da:	4d33      	ldr	r5, [pc, #204]	; (80022a8 <HAL_DMA_Init+0xfc>)
 80021dc:	69a0      	ldr	r0, [r4, #24]
 80021de:	401d      	ands	r5, r3
 80021e0:	e9d4 2301 	ldrd	r2, r3, [r4, #4]
 80021e4:	4313      	orrs	r3, r2
 80021e6:	68e2      	ldr	r2, [r4, #12]
 80021e8:	4313      	orrs	r3, r2
 80021ea:	6922      	ldr	r2, [r4, #16]
 80021ec:	4313      	orrs	r3, r2
 80021ee:	6962      	ldr	r2, [r4, #20]
 80021f0:	4313      	orrs	r3, r2
 80021f2:	69e2      	ldr	r2, [r4, #28]
 80021f4:	4303      	orrs	r3, r0
 80021f6:	4313      	orrs	r3, r2
 80021f8:	6a22      	ldr	r2, [r4, #32]
 80021fa:	4313      	orrs	r3, r2
 80021fc:	6a62      	ldr	r2, [r4, #36]	; 0x24
 80021fe:	2a04      	cmp	r2, #4
 8002200:	ea43 0305 	orr.w	r3, r3, r5
 8002204:	bf02      	ittt	eq
 8002206:	e9d4 560b 	ldrdeq	r5, r6, [r4, #44]	; 0x2c
 800220a:	4335      	orreq	r5, r6
 800220c:	432b      	orreq	r3, r5
 800220e:	600b      	str	r3, [r1, #0]
 8002210:	694b      	ldr	r3, [r1, #20]
 8002212:	2a04      	cmp	r2, #4
 8002214:	f023 0307 	bic.w	r3, r3, #7
 8002218:	ea43 0302 	orr.w	r3, r3, r2
 800221c:	d133      	bne.n	8002286 <HAL_DMA_Init+0xda>
 800221e:	6aa2      	ldr	r2, [r4, #40]	; 0x28
 8002220:	6ae5      	ldr	r5, [r4, #44]	; 0x2c
 8002222:	4313      	orrs	r3, r2
 8002224:	b37d      	cbz	r5, 8002286 <HAL_DMA_Init+0xda>
 8002226:	b990      	cbnz	r0, 800224e <HAL_DMA_Init+0xa2>
 8002228:	2a01      	cmp	r2, #1
 800222a:	d021      	beq.n	8002270 <HAL_DMA_Init+0xc4>
 800222c:	f032 0202 	bics.w	r2, r2, #2
 8002230:	d129      	bne.n	8002286 <HAL_DMA_Init+0xda>
 8002232:	01ea      	lsls	r2, r5, #7
 8002234:	d527      	bpl.n	8002286 <HAL_DMA_Init+0xda>
 8002236:	e01e      	b.n	8002276 <HAL_DMA_Init+0xca>
 8002238:	f7ff fc6e 	bl	8001b18 <HAL_GetTick>
 800223c:	1b40      	subs	r0, r0, r5
 800223e:	2805      	cmp	r0, #5
 8002240:	d9c6      	bls.n	80021d0 <HAL_DMA_Init+0x24>
 8002242:	2320      	movs	r3, #32
 8002244:	6563      	str	r3, [r4, #84]	; 0x54
 8002246:	2003      	movs	r0, #3
 8002248:	f884 0035 	strb.w	r0, [r4, #53]	; 0x35
 800224c:	bd70      	pop	{r4, r5, r6, pc}
 800224e:	f5b0 5f00 	cmp.w	r0, #8192	; 0x2000
 8002252:	d114      	bne.n	800227e <HAL_DMA_Init+0xd2>
 8002254:	2a03      	cmp	r2, #3
 8002256:	d816      	bhi.n	8002286 <HAL_DMA_Init+0xda>
 8002258:	a001      	add	r0, pc, #4	; (adr r0, 8002260 <HAL_DMA_Init+0xb4>)
 800225a:	f850 f022 	ldr.w	pc, [r0, r2, lsl #2]
 800225e:	bf00      	nop
 8002260:	08002277 	.word	0x08002277
 8002264:	08002233 	.word	0x08002233
 8002268:	08002277 	.word	0x08002277
 800226c:	08002271 	.word	0x08002271
 8002270:	f1b5 7fc0 	cmp.w	r5, #25165824	; 0x1800000
 8002274:	d107      	bne.n	8002286 <HAL_DMA_Init+0xda>
 8002276:	2340      	movs	r3, #64	; 0x40
 8002278:	6563      	str	r3, [r4, #84]	; 0x54
 800227a:	2001      	movs	r0, #1
 800227c:	e7e4      	b.n	8002248 <HAL_DMA_Init+0x9c>
 800227e:	2a02      	cmp	r2, #2
 8002280:	d9f9      	bls.n	8002276 <HAL_DMA_Init+0xca>
 8002282:	2a03      	cmp	r2, #3
 8002284:	d0d5      	beq.n	8002232 <HAL_DMA_Init+0x86>
 8002286:	614b      	str	r3, [r1, #20]
 8002288:	4620      	mov	r0, r4
 800228a:	f7ff ff79 	bl	8002180 <DMA_CalcBaseAndBitshift>
 800228e:	6de2      	ldr	r2, [r4, #92]	; 0x5c
 8002290:	233f      	movs	r3, #63	; 0x3f
 8002292:	4093      	lsls	r3, r2
 8002294:	6083      	str	r3, [r0, #8]
 8002296:	2000      	movs	r0, #0
 8002298:	2301      	movs	r3, #1
 800229a:	6560      	str	r0, [r4, #84]	; 0x54
 800229c:	f884 3035 	strb.w	r3, [r4, #53]	; 0x35
 80022a0:	e7d4      	b.n	800224c <HAL_DMA_Init+0xa0>
 80022a2:	2001      	movs	r0, #1
 80022a4:	e7d2      	b.n	800224c <HAL_DMA_Init+0xa0>
 80022a6:	bf00      	nop
 80022a8:	f010803f 	.word	0xf010803f

080022ac <HAL_DMA_Start_IT>:
 80022ac:	b570      	push	{r4, r5, r6, lr}
 80022ae:	f890 4034 	ldrb.w	r4, [r0, #52]	; 0x34
 80022b2:	6d86      	ldr	r6, [r0, #88]	; 0x58
 80022b4:	2c01      	cmp	r4, #1
 80022b6:	d031      	beq.n	800231c <HAL_DMA_Start_IT+0x70>
 80022b8:	2401      	movs	r4, #1
 80022ba:	f880 4034 	strb.w	r4, [r0, #52]	; 0x34
 80022be:	f890 4035 	ldrb.w	r4, [r0, #53]	; 0x35
 80022c2:	2c01      	cmp	r4, #1
 80022c4:	f04f 0500 	mov.w	r5, #0
 80022c8:	f04f 0402 	mov.w	r4, #2
 80022cc:	d124      	bne.n	8002318 <HAL_DMA_Start_IT+0x6c>
 80022ce:	f880 4035 	strb.w	r4, [r0, #53]	; 0x35
 80022d2:	6804      	ldr	r4, [r0, #0]
 80022d4:	6545      	str	r5, [r0, #84]	; 0x54
 80022d6:	6825      	ldr	r5, [r4, #0]
 80022d8:	f425 2580 	bic.w	r5, r5, #262144	; 0x40000
 80022dc:	6025      	str	r5, [r4, #0]
 80022de:	6063      	str	r3, [r4, #4]
 80022e0:	6883      	ldr	r3, [r0, #8]
 80022e2:	2b40      	cmp	r3, #64	; 0x40
 80022e4:	bf0e      	itee	eq
 80022e6:	60a2      	streq	r2, [r4, #8]
 80022e8:	60a1      	strne	r1, [r4, #8]
 80022ea:	60e2      	strne	r2, [r4, #12]
 80022ec:	6dc2      	ldr	r2, [r0, #92]	; 0x5c
 80022ee:	bf08      	it	eq
 80022f0:	60e1      	streq	r1, [r4, #12]
 80022f2:	233f      	movs	r3, #63	; 0x3f
 80022f4:	4093      	lsls	r3, r2
 80022f6:	60b3      	str	r3, [r6, #8]
 80022f8:	6823      	ldr	r3, [r4, #0]
 80022fa:	f043 0316 	orr.w	r3, r3, #22
 80022fe:	6023      	str	r3, [r4, #0]
 8002300:	6c03      	ldr	r3, [r0, #64]	; 0x40
 8002302:	b11b      	cbz	r3, 800230c <HAL_DMA_Start_IT+0x60>
 8002304:	6823      	ldr	r3, [r4, #0]
 8002306:	f043 0308 	orr.w	r3, r3, #8
 800230a:	6023      	str	r3, [r4, #0]
 800230c:	6823      	ldr	r3, [r4, #0]
 800230e:	f043 0301 	orr.w	r3, r3, #1
 8002312:	6023      	str	r3, [r4, #0]
 8002314:	2000      	movs	r0, #0
 8002316:	bd70      	pop	{r4, r5, r6, pc}
 8002318:	f880 5034 	strb.w	r5, [r0, #52]	; 0x34
 800231c:	2002      	movs	r0, #2
 800231e:	e7fa      	b.n	8002316 <HAL_DMA_Start_IT+0x6a>

08002320 <HAL_DMA_IRQHandler>:
 8002320:	b5f7      	push	{r0, r1, r2, r4, r5, r6, r7, lr}
 8002322:	2300      	movs	r3, #0
 8002324:	9301      	str	r3, [sp, #4]
 8002326:	4b5c      	ldr	r3, [pc, #368]	; (8002498 <HAL_DMA_IRQHandler+0x178>)
 8002328:	6d85      	ldr	r5, [r0, #88]	; 0x58
 800232a:	681f      	ldr	r7, [r3, #0]
 800232c:	6dc3      	ldr	r3, [r0, #92]	; 0x5c
 800232e:	682e      	ldr	r6, [r5, #0]
 8002330:	2208      	movs	r2, #8
 8002332:	409a      	lsls	r2, r3
 8002334:	4232      	tst	r2, r6
 8002336:	4604      	mov	r4, r0
 8002338:	d00c      	beq.n	8002354 <HAL_DMA_IRQHandler+0x34>
 800233a:	6801      	ldr	r1, [r0, #0]
 800233c:	6808      	ldr	r0, [r1, #0]
 800233e:	0740      	lsls	r0, r0, #29
 8002340:	d508      	bpl.n	8002354 <HAL_DMA_IRQHandler+0x34>
 8002342:	6808      	ldr	r0, [r1, #0]
 8002344:	f020 0004 	bic.w	r0, r0, #4
 8002348:	6008      	str	r0, [r1, #0]
 800234a:	60aa      	str	r2, [r5, #8]
 800234c:	6d62      	ldr	r2, [r4, #84]	; 0x54
 800234e:	f042 0201 	orr.w	r2, r2, #1
 8002352:	6562      	str	r2, [r4, #84]	; 0x54
 8002354:	2201      	movs	r2, #1
 8002356:	409a      	lsls	r2, r3
 8002358:	4232      	tst	r2, r6
 800235a:	d008      	beq.n	800236e <HAL_DMA_IRQHandler+0x4e>
 800235c:	6821      	ldr	r1, [r4, #0]
 800235e:	6949      	ldr	r1, [r1, #20]
 8002360:	0609      	lsls	r1, r1, #24
 8002362:	bf41      	itttt	mi
 8002364:	60aa      	strmi	r2, [r5, #8]
 8002366:	6d62      	ldrmi	r2, [r4, #84]	; 0x54
 8002368:	f042 0202 	orrmi.w	r2, r2, #2
 800236c:	6562      	strmi	r2, [r4, #84]	; 0x54
 800236e:	2204      	movs	r2, #4
 8002370:	409a      	lsls	r2, r3
 8002372:	4232      	tst	r2, r6
 8002374:	d008      	beq.n	8002388 <HAL_DMA_IRQHandler+0x68>
 8002376:	6821      	ldr	r1, [r4, #0]
 8002378:	6809      	ldr	r1, [r1, #0]
 800237a:	0788      	lsls	r0, r1, #30
 800237c:	bf41      	itttt	mi
 800237e:	60aa      	strmi	r2, [r5, #8]
 8002380:	6d62      	ldrmi	r2, [r4, #84]	; 0x54
 8002382:	f042 0204 	orrmi.w	r2, r2, #4
 8002386:	6562      	strmi	r2, [r4, #84]	; 0x54
 8002388:	2210      	movs	r2, #16
 800238a:	409a      	lsls	r2, r3
 800238c:	4232      	tst	r2, r6
 800238e:	d010      	beq.n	80023b2 <HAL_DMA_IRQHandler+0x92>
 8002390:	6823      	ldr	r3, [r4, #0]
 8002392:	6819      	ldr	r1, [r3, #0]
 8002394:	0709      	lsls	r1, r1, #28
 8002396:	d50c      	bpl.n	80023b2 <HAL_DMA_IRQHandler+0x92>
 8002398:	60aa      	str	r2, [r5, #8]
 800239a:	681a      	ldr	r2, [r3, #0]
 800239c:	0350      	lsls	r0, r2, #13
 800239e:	d537      	bpl.n	8002410 <HAL_DMA_IRQHandler+0xf0>
 80023a0:	681b      	ldr	r3, [r3, #0]
 80023a2:	0319      	lsls	r1, r3, #12
 80023a4:	d401      	bmi.n	80023aa <HAL_DMA_IRQHandler+0x8a>
 80023a6:	6c23      	ldr	r3, [r4, #64]	; 0x40
 80023a8:	e000      	b.n	80023ac <HAL_DMA_IRQHandler+0x8c>
 80023aa:	6ca3      	ldr	r3, [r4, #72]	; 0x48
 80023ac:	b10b      	cbz	r3, 80023b2 <HAL_DMA_IRQHandler+0x92>
 80023ae:	4620      	mov	r0, r4
 80023b0:	4798      	blx	r3
 80023b2:	6de1      	ldr	r1, [r4, #92]	; 0x5c
 80023b4:	2220      	movs	r2, #32
 80023b6:	408a      	lsls	r2, r1
 80023b8:	4232      	tst	r2, r6
 80023ba:	d03a      	beq.n	8002432 <HAL_DMA_IRQHandler+0x112>
 80023bc:	6823      	ldr	r3, [r4, #0]
 80023be:	6818      	ldr	r0, [r3, #0]
 80023c0:	06c6      	lsls	r6, r0, #27
 80023c2:	d536      	bpl.n	8002432 <HAL_DMA_IRQHandler+0x112>
 80023c4:	60aa      	str	r2, [r5, #8]
 80023c6:	f894 2035 	ldrb.w	r2, [r4, #53]	; 0x35
 80023ca:	2a05      	cmp	r2, #5
 80023cc:	681a      	ldr	r2, [r3, #0]
 80023ce:	d127      	bne.n	8002420 <HAL_DMA_IRQHandler+0x100>
 80023d0:	f022 0216 	bic.w	r2, r2, #22
 80023d4:	601a      	str	r2, [r3, #0]
 80023d6:	695a      	ldr	r2, [r3, #20]
 80023d8:	f022 0280 	bic.w	r2, r2, #128	; 0x80
 80023dc:	615a      	str	r2, [r3, #20]
 80023de:	6c22      	ldr	r2, [r4, #64]	; 0x40
 80023e0:	b90a      	cbnz	r2, 80023e6 <HAL_DMA_IRQHandler+0xc6>
 80023e2:	6ca2      	ldr	r2, [r4, #72]	; 0x48
 80023e4:	b11a      	cbz	r2, 80023ee <HAL_DMA_IRQHandler+0xce>
 80023e6:	681a      	ldr	r2, [r3, #0]
 80023e8:	f022 0208 	bic.w	r2, r2, #8
 80023ec:	601a      	str	r2, [r3, #0]
 80023ee:	233f      	movs	r3, #63	; 0x3f
 80023f0:	408b      	lsls	r3, r1
 80023f2:	60ab      	str	r3, [r5, #8]
 80023f4:	2301      	movs	r3, #1
 80023f6:	f884 3035 	strb.w	r3, [r4, #53]	; 0x35
 80023fa:	2300      	movs	r3, #0
 80023fc:	f884 3034 	strb.w	r3, [r4, #52]	; 0x34
 8002400:	6d23      	ldr	r3, [r4, #80]	; 0x50
 8002402:	2b00      	cmp	r3, #0
 8002404:	d045      	beq.n	8002492 <HAL_DMA_IRQHandler+0x172>
 8002406:	4620      	mov	r0, r4
 8002408:	b003      	add	sp, #12
 800240a:	e8bd 40f0 	ldmia.w	sp!, {r4, r5, r6, r7, lr}
 800240e:	4718      	bx	r3
 8002410:	681a      	ldr	r2, [r3, #0]
 8002412:	05d2      	lsls	r2, r2, #23
 8002414:	bf5e      	ittt	pl
 8002416:	681a      	ldrpl	r2, [r3, #0]
 8002418:	f022 0208 	bicpl.w	r2, r2, #8
 800241c:	601a      	strpl	r2, [r3, #0]
 800241e:	e7c2      	b.n	80023a6 <HAL_DMA_IRQHandler+0x86>
 8002420:	0350      	lsls	r0, r2, #13
 8002422:	d527      	bpl.n	8002474 <HAL_DMA_IRQHandler+0x154>
 8002424:	681b      	ldr	r3, [r3, #0]
 8002426:	0319      	lsls	r1, r3, #12
 8002428:	d431      	bmi.n	800248e <HAL_DMA_IRQHandler+0x16e>
 800242a:	6c63      	ldr	r3, [r4, #68]	; 0x44
 800242c:	b10b      	cbz	r3, 8002432 <HAL_DMA_IRQHandler+0x112>
 800242e:	4620      	mov	r0, r4
 8002430:	4798      	blx	r3
 8002432:	6d63      	ldr	r3, [r4, #84]	; 0x54
 8002434:	b36b      	cbz	r3, 8002492 <HAL_DMA_IRQHandler+0x172>
 8002436:	6d63      	ldr	r3, [r4, #84]	; 0x54
 8002438:	07da      	lsls	r2, r3, #31
 800243a:	d519      	bpl.n	8002470 <HAL_DMA_IRQHandler+0x150>
 800243c:	6822      	ldr	r2, [r4, #0]
 800243e:	f44f 5316 	mov.w	r3, #9600	; 0x2580
 8002442:	fbb7 f7f3 	udiv	r7, r7, r3
 8002446:	2305      	movs	r3, #5
 8002448:	f884 3035 	strb.w	r3, [r4, #53]	; 0x35
 800244c:	6813      	ldr	r3, [r2, #0]
 800244e:	f023 0301 	bic.w	r3, r3, #1
 8002452:	6013      	str	r3, [r2, #0]
 8002454:	9b01      	ldr	r3, [sp, #4]
 8002456:	3301      	adds	r3, #1
 8002458:	42bb      	cmp	r3, r7
 800245a:	9301      	str	r3, [sp, #4]
 800245c:	d802      	bhi.n	8002464 <HAL_DMA_IRQHandler+0x144>
 800245e:	6813      	ldr	r3, [r2, #0]
 8002460:	07db      	lsls	r3, r3, #31
 8002462:	d4f7      	bmi.n	8002454 <HAL_DMA_IRQHandler+0x134>
 8002464:	2301      	movs	r3, #1
 8002466:	f884 3035 	strb.w	r3, [r4, #53]	; 0x35
 800246a:	2300      	movs	r3, #0
 800246c:	f884 3034 	strb.w	r3, [r4, #52]	; 0x34
 8002470:	6ce3      	ldr	r3, [r4, #76]	; 0x4c
 8002472:	e7c6      	b.n	8002402 <HAL_DMA_IRQHandler+0xe2>
 8002474:	681a      	ldr	r2, [r3, #0]
 8002476:	f412 7280 	ands.w	r2, r2, #256	; 0x100
 800247a:	d108      	bne.n	800248e <HAL_DMA_IRQHandler+0x16e>
 800247c:	6819      	ldr	r1, [r3, #0]
 800247e:	f021 0110 	bic.w	r1, r1, #16
 8002482:	6019      	str	r1, [r3, #0]
 8002484:	2301      	movs	r3, #1
 8002486:	f884 3035 	strb.w	r3, [r4, #53]	; 0x35
 800248a:	f884 2034 	strb.w	r2, [r4, #52]	; 0x34
 800248e:	6be3      	ldr	r3, [r4, #60]	; 0x3c
 8002490:	e7cc      	b.n	800242c <HAL_DMA_IRQHandler+0x10c>
 8002492:	b003      	add	sp, #12
 8002494:	bdf0      	pop	{r4, r5, r6, r7, pc}
 8002496:	bf00      	nop
 8002498:	20000000 	.word	0x20000000

0800249c <HAL_GPIO_Init>:
 800249c:	e92d 4ff7 	stmdb	sp!, {r0, r1, r2, r4, r5, r6, r7, r8, r9, sl, fp, lr}
 80024a0:	f8df 91a8 	ldr.w	r9, [pc, #424]	; 800264c <HAL_GPIO_Init+0x1b0>
 80024a4:	4a67      	ldr	r2, [pc, #412]	; (8002644 <HAL_GPIO_Init+0x1a8>)
 80024a6:	2300      	movs	r3, #0
 80024a8:	680d      	ldr	r5, [r1, #0]
 80024aa:	2401      	movs	r4, #1
 80024ac:	409c      	lsls	r4, r3
 80024ae:	ea04 0c05 	and.w	ip, r4, r5
 80024b2:	43ac      	bics	r4, r5
 80024b4:	f040 80b1 	bne.w	800261a <HAL_GPIO_Init+0x17e>
 80024b8:	684d      	ldr	r5, [r1, #4]
 80024ba:	f005 0403 	and.w	r4, r5, #3
 80024be:	ea4f 0843 	mov.w	r8, r3, lsl #1
 80024c2:	2603      	movs	r6, #3
 80024c4:	1e67      	subs	r7, r4, #1
 80024c6:	fa06 f608 	lsl.w	r6, r6, r8
 80024ca:	2f01      	cmp	r7, #1
 80024cc:	ea6f 0606 	mvn.w	r6, r6
 80024d0:	d834      	bhi.n	800253c <HAL_GPIO_Init+0xa0>
 80024d2:	6887      	ldr	r7, [r0, #8]
 80024d4:	ea07 0e06 	and.w	lr, r7, r6
 80024d8:	68cf      	ldr	r7, [r1, #12]
 80024da:	fa07 f708 	lsl.w	r7, r7, r8
 80024de:	ea47 070e 	orr.w	r7, r7, lr
 80024e2:	6087      	str	r7, [r0, #8]
 80024e4:	6847      	ldr	r7, [r0, #4]
 80024e6:	ea27 0e0c 	bic.w	lr, r7, ip
 80024ea:	f3c5 1700 	ubfx	r7, r5, #4, #1
 80024ee:	409f      	lsls	r7, r3
 80024f0:	ea47 070e 	orr.w	r7, r7, lr
 80024f4:	6047      	str	r7, [r0, #4]
 80024f6:	68c7      	ldr	r7, [r0, #12]
 80024f8:	ea07 0e06 	and.w	lr, r7, r6
 80024fc:	688f      	ldr	r7, [r1, #8]
 80024fe:	fa07 f708 	lsl.w	r7, r7, r8
 8002502:	ea47 070e 	orr.w	r7, r7, lr
 8002506:	2c02      	cmp	r4, #2
 8002508:	60c7      	str	r7, [r0, #12]
 800250a:	d119      	bne.n	8002540 <HAL_GPIO_Init+0xa4>
 800250c:	ea4f 0ad3 	mov.w	sl, r3, lsr #3
 8002510:	eb00 0a8a 	add.w	sl, r0, sl, lsl #2
 8002514:	f003 0b07 	and.w	fp, r3, #7
 8002518:	f8da 7020 	ldr.w	r7, [sl, #32]
 800251c:	ea4f 0b8b 	mov.w	fp, fp, lsl #2
 8002520:	f04f 0e0f 	mov.w	lr, #15
 8002524:	fa0e fe0b 	lsl.w	lr, lr, fp
 8002528:	ea27 0e0e 	bic.w	lr, r7, lr
 800252c:	690f      	ldr	r7, [r1, #16]
 800252e:	fa07 f70b 	lsl.w	r7, r7, fp
 8002532:	ea47 070e 	orr.w	r7, r7, lr
 8002536:	f8ca 7020 	str.w	r7, [sl, #32]
 800253a:	e001      	b.n	8002540 <HAL_GPIO_Init+0xa4>
 800253c:	2c03      	cmp	r4, #3
 800253e:	d1da      	bne.n	80024f6 <HAL_GPIO_Init+0x5a>
 8002540:	6807      	ldr	r7, [r0, #0]
 8002542:	fa04 f408 	lsl.w	r4, r4, r8
 8002546:	403e      	ands	r6, r7
 8002548:	4326      	orrs	r6, r4
 800254a:	f415 3f40 	tst.w	r5, #196608	; 0x30000
 800254e:	6006      	str	r6, [r0, #0]
 8002550:	d063      	beq.n	800261a <HAL_GPIO_Init+0x17e>
 8002552:	f04f 0a00 	mov.w	sl, #0
 8002556:	f8cd a004 	str.w	sl, [sp, #4]
 800255a:	f8d9 6044 	ldr.w	r6, [r9, #68]	; 0x44
 800255e:	4c3a      	ldr	r4, [pc, #232]	; (8002648 <HAL_GPIO_Init+0x1ac>)
 8002560:	f446 4680 	orr.w	r6, r6, #16384	; 0x4000
 8002564:	f8c9 6044 	str.w	r6, [r9, #68]	; 0x44
 8002568:	f8d9 6044 	ldr.w	r6, [r9, #68]	; 0x44
 800256c:	f406 4680 	and.w	r6, r6, #16384	; 0x4000
 8002570:	9601      	str	r6, [sp, #4]
 8002572:	9e01      	ldr	r6, [sp, #4]
 8002574:	f023 0603 	bic.w	r6, r3, #3
 8002578:	f106 4680 	add.w	r6, r6, #1073741824	; 0x40000000
 800257c:	f506 369c 	add.w	r6, r6, #79872	; 0x13800
 8002580:	f003 0e03 	and.w	lr, r3, #3
 8002584:	f8d6 8008 	ldr.w	r8, [r6, #8]
 8002588:	ea4f 0e8e 	mov.w	lr, lr, lsl #2
 800258c:	270f      	movs	r7, #15
 800258e:	fa07 f70e 	lsl.w	r7, r7, lr
 8002592:	42a0      	cmp	r0, r4
 8002594:	ea28 0707 	bic.w	r7, r8, r7
 8002598:	d046      	beq.n	8002628 <HAL_GPIO_Init+0x18c>
 800259a:	f504 6480 	add.w	r4, r4, #1024	; 0x400
 800259e:	42a0      	cmp	r0, r4
 80025a0:	d044      	beq.n	800262c <HAL_GPIO_Init+0x190>
 80025a2:	f504 6480 	add.w	r4, r4, #1024	; 0x400
 80025a6:	42a0      	cmp	r0, r4
 80025a8:	d042      	beq.n	8002630 <HAL_GPIO_Init+0x194>
 80025aa:	f504 6480 	add.w	r4, r4, #1024	; 0x400
 80025ae:	42a0      	cmp	r0, r4
 80025b0:	d040      	beq.n	8002634 <HAL_GPIO_Init+0x198>
 80025b2:	f504 6480 	add.w	r4, r4, #1024	; 0x400
 80025b6:	42a0      	cmp	r0, r4
 80025b8:	d03e      	beq.n	8002638 <HAL_GPIO_Init+0x19c>
 80025ba:	f504 6480 	add.w	r4, r4, #1024	; 0x400
 80025be:	42a0      	cmp	r0, r4
 80025c0:	d03c      	beq.n	800263c <HAL_GPIO_Init+0x1a0>
 80025c2:	f504 6480 	add.w	r4, r4, #1024	; 0x400
 80025c6:	42a0      	cmp	r0, r4
 80025c8:	d03a      	beq.n	8002640 <HAL_GPIO_Init+0x1a4>
 80025ca:	f504 6480 	add.w	r4, r4, #1024	; 0x400
 80025ce:	42a0      	cmp	r0, r4
 80025d0:	bf0c      	ite	eq
 80025d2:	2407      	moveq	r4, #7
 80025d4:	2408      	movne	r4, #8
 80025d6:	fa04 f40e 	lsl.w	r4, r4, lr
 80025da:	433c      	orrs	r4, r7
 80025dc:	60b4      	str	r4, [r6, #8]
 80025de:	6814      	ldr	r4, [r2, #0]
 80025e0:	ea6f 060c 	mvn.w	r6, ip
 80025e4:	03ef      	lsls	r7, r5, #15
 80025e6:	bf54      	ite	pl
 80025e8:	4034      	andpl	r4, r6
 80025ea:	ea4c 0404 	orrmi.w	r4, ip, r4
 80025ee:	6014      	str	r4, [r2, #0]
 80025f0:	6854      	ldr	r4, [r2, #4]
 80025f2:	03af      	lsls	r7, r5, #14
 80025f4:	bf54      	ite	pl
 80025f6:	4034      	andpl	r4, r6
 80025f8:	ea4c 0404 	orrmi.w	r4, ip, r4
 80025fc:	6054      	str	r4, [r2, #4]
 80025fe:	6894      	ldr	r4, [r2, #8]
 8002600:	02ef      	lsls	r7, r5, #11
 8002602:	bf54      	ite	pl
 8002604:	4034      	andpl	r4, r6
 8002606:	ea4c 0404 	orrmi.w	r4, ip, r4
 800260a:	6094      	str	r4, [r2, #8]
 800260c:	68d4      	ldr	r4, [r2, #12]
 800260e:	02ad      	lsls	r5, r5, #10
 8002610:	bf54      	ite	pl
 8002612:	4034      	andpl	r4, r6
 8002614:	ea4c 0404 	orrmi.w	r4, ip, r4
 8002618:	60d4      	str	r4, [r2, #12]
 800261a:	3301      	adds	r3, #1
 800261c:	2b10      	cmp	r3, #16
 800261e:	f47f af43 	bne.w	80024a8 <HAL_GPIO_Init+0xc>
 8002622:	b003      	add	sp, #12
 8002624:	e8bd 8ff0 	ldmia.w	sp!, {r4, r5, r6, r7, r8, r9, sl, fp, pc}
 8002628:	4654      	mov	r4, sl
 800262a:	e7d4      	b.n	80025d6 <HAL_GPIO_Init+0x13a>
 800262c:	2401      	movs	r4, #1
 800262e:	e7d2      	b.n	80025d6 <HAL_GPIO_Init+0x13a>
 8002630:	2402      	movs	r4, #2
 8002632:	e7d0      	b.n	80025d6 <HAL_GPIO_Init+0x13a>
 8002634:	2403      	movs	r4, #3
 8002636:	e7ce      	b.n	80025d6 <HAL_GPIO_Init+0x13a>
 8002638:	2404      	movs	r4, #4
 800263a:	e7cc      	b.n	80025d6 <HAL_GPIO_Init+0x13a>
 800263c:	2405      	movs	r4, #5
 800263e:	e7ca      	b.n	80025d6 <HAL_GPIO_Init+0x13a>
 8002640:	2406      	movs	r4, #6
 8002642:	e7c8      	b.n	80025d6 <HAL_GPIO_Init+0x13a>
 8002644:	40013c00 	.word	0x40013c00
 8002648:	40020000 	.word	0x40020000
 800264c:	40023800 	.word	0x40023800

08002650 <HAL_RCC_OscConfig>:
 8002650:	e92d 41f3 	stmdb	sp!, {r0, r1, r4, r5, r6, r7, r8, lr}
 8002654:	4604      	mov	r4, r0
 8002656:	b340      	cbz	r0, 80026aa <HAL_RCC_OscConfig+0x5a>
 8002658:	6803      	ldr	r3, [r0, #0]
 800265a:	07dd      	lsls	r5, r3, #31
 800265c:	d410      	bmi.n	8002680 <HAL_RCC_OscConfig+0x30>
 800265e:	6823      	ldr	r3, [r4, #0]
 8002660:	0798      	lsls	r0, r3, #30
 8002662:	d45e      	bmi.n	8002722 <HAL_RCC_OscConfig+0xd2>
 8002664:	6823      	ldr	r3, [r4, #0]
 8002666:	071a      	lsls	r2, r3, #28
 8002668:	f100 80a0 	bmi.w	80027ac <HAL_RCC_OscConfig+0x15c>
 800266c:	6823      	ldr	r3, [r4, #0]
 800266e:	075b      	lsls	r3, r3, #29
 8002670:	f100 80be 	bmi.w	80027f0 <HAL_RCC_OscConfig+0x1a0>
 8002674:	69a0      	ldr	r0, [r4, #24]
 8002676:	2800      	cmp	r0, #0
 8002678:	f040 811f 	bne.w	80028ba <HAL_RCC_OscConfig+0x26a>
 800267c:	2000      	movs	r0, #0
 800267e:	e02b      	b.n	80026d8 <HAL_RCC_OscConfig+0x88>
 8002680:	4ba6      	ldr	r3, [pc, #664]	; (800291c <HAL_RCC_OscConfig+0x2cc>)
 8002682:	689a      	ldr	r2, [r3, #8]
 8002684:	f002 020c 	and.w	r2, r2, #12
 8002688:	2a04      	cmp	r2, #4
 800268a:	d007      	beq.n	800269c <HAL_RCC_OscConfig+0x4c>
 800268c:	689a      	ldr	r2, [r3, #8]
 800268e:	f002 020c 	and.w	r2, r2, #12
 8002692:	2a08      	cmp	r2, #8
 8002694:	d10b      	bne.n	80026ae <HAL_RCC_OscConfig+0x5e>
 8002696:	685a      	ldr	r2, [r3, #4]
 8002698:	0251      	lsls	r1, r2, #9
 800269a:	d508      	bpl.n	80026ae <HAL_RCC_OscConfig+0x5e>
 800269c:	4b9f      	ldr	r3, [pc, #636]	; (800291c <HAL_RCC_OscConfig+0x2cc>)
 800269e:	681b      	ldr	r3, [r3, #0]
 80026a0:	039a      	lsls	r2, r3, #14
 80026a2:	d5dc      	bpl.n	800265e <HAL_RCC_OscConfig+0xe>
 80026a4:	6863      	ldr	r3, [r4, #4]
 80026a6:	2b00      	cmp	r3, #0
 80026a8:	d1d9      	bne.n	800265e <HAL_RCC_OscConfig+0xe>
 80026aa:	2001      	movs	r0, #1
 80026ac:	e014      	b.n	80026d8 <HAL_RCC_OscConfig+0x88>
 80026ae:	6862      	ldr	r2, [r4, #4]
 80026b0:	f5b2 3f80 	cmp.w	r2, #65536	; 0x10000
 80026b4:	d113      	bne.n	80026de <HAL_RCC_OscConfig+0x8e>
 80026b6:	681a      	ldr	r2, [r3, #0]
 80026b8:	f442 3280 	orr.w	r2, r2, #65536	; 0x10000
 80026bc:	601a      	str	r2, [r3, #0]
 80026be:	f7ff fa2b 	bl	8001b18 <HAL_GetTick>
 80026c2:	4e96      	ldr	r6, [pc, #600]	; (800291c <HAL_RCC_OscConfig+0x2cc>)
 80026c4:	4605      	mov	r5, r0
 80026c6:	6833      	ldr	r3, [r6, #0]
 80026c8:	039b      	lsls	r3, r3, #14
 80026ca:	d4c8      	bmi.n	800265e <HAL_RCC_OscConfig+0xe>
 80026cc:	f7ff fa24 	bl	8001b18 <HAL_GetTick>
 80026d0:	1b40      	subs	r0, r0, r5
 80026d2:	2864      	cmp	r0, #100	; 0x64
 80026d4:	d9f7      	bls.n	80026c6 <HAL_RCC_OscConfig+0x76>
 80026d6:	2003      	movs	r0, #3
 80026d8:	b002      	add	sp, #8
 80026da:	e8bd 81f0 	ldmia.w	sp!, {r4, r5, r6, r7, r8, pc}
 80026de:	4d8f      	ldr	r5, [pc, #572]	; (800291c <HAL_RCC_OscConfig+0x2cc>)
 80026e0:	f5b2 2fa0 	cmp.w	r2, #327680	; 0x50000
 80026e4:	682b      	ldr	r3, [r5, #0]
 80026e6:	d107      	bne.n	80026f8 <HAL_RCC_OscConfig+0xa8>
 80026e8:	f443 2380 	orr.w	r3, r3, #262144	; 0x40000
 80026ec:	602b      	str	r3, [r5, #0]
 80026ee:	682b      	ldr	r3, [r5, #0]
 80026f0:	f443 3380 	orr.w	r3, r3, #65536	; 0x10000
 80026f4:	602b      	str	r3, [r5, #0]
 80026f6:	e7e2      	b.n	80026be <HAL_RCC_OscConfig+0x6e>
 80026f8:	f423 3380 	bic.w	r3, r3, #65536	; 0x10000
 80026fc:	602b      	str	r3, [r5, #0]
 80026fe:	682b      	ldr	r3, [r5, #0]
 8002700:	f423 2380 	bic.w	r3, r3, #262144	; 0x40000
 8002704:	602b      	str	r3, [r5, #0]
 8002706:	2a00      	cmp	r2, #0
 8002708:	d1d9      	bne.n	80026be <HAL_RCC_OscConfig+0x6e>
 800270a:	f7ff fa05 	bl	8001b18 <HAL_GetTick>
 800270e:	4606      	mov	r6, r0
 8002710:	682b      	ldr	r3, [r5, #0]
 8002712:	039f      	lsls	r7, r3, #14
 8002714:	d5a3      	bpl.n	800265e <HAL_RCC_OscConfig+0xe>
 8002716:	f7ff f9ff 	bl	8001b18 <HAL_GetTick>
 800271a:	1b80      	subs	r0, r0, r6
 800271c:	2864      	cmp	r0, #100	; 0x64
 800271e:	d9f7      	bls.n	8002710 <HAL_RCC_OscConfig+0xc0>
 8002720:	e7d9      	b.n	80026d6 <HAL_RCC_OscConfig+0x86>
 8002722:	4b7e      	ldr	r3, [pc, #504]	; (800291c <HAL_RCC_OscConfig+0x2cc>)
 8002724:	689a      	ldr	r2, [r3, #8]
 8002726:	f012 0f0c 	tst.w	r2, #12
 800272a:	d007      	beq.n	800273c <HAL_RCC_OscConfig+0xec>
 800272c:	689a      	ldr	r2, [r3, #8]
 800272e:	f002 020c 	and.w	r2, r2, #12
 8002732:	2a08      	cmp	r2, #8
 8002734:	d111      	bne.n	800275a <HAL_RCC_OscConfig+0x10a>
 8002736:	685b      	ldr	r3, [r3, #4]
 8002738:	025e      	lsls	r6, r3, #9
 800273a:	d40e      	bmi.n	800275a <HAL_RCC_OscConfig+0x10a>
 800273c:	4b77      	ldr	r3, [pc, #476]	; (800291c <HAL_RCC_OscConfig+0x2cc>)
 800273e:	681a      	ldr	r2, [r3, #0]
 8002740:	0795      	lsls	r5, r2, #30
 8002742:	d502      	bpl.n	800274a <HAL_RCC_OscConfig+0xfa>
 8002744:	68e2      	ldr	r2, [r4, #12]
 8002746:	2a01      	cmp	r2, #1
 8002748:	d1af      	bne.n	80026aa <HAL_RCC_OscConfig+0x5a>
 800274a:	681a      	ldr	r2, [r3, #0]
 800274c:	6921      	ldr	r1, [r4, #16]
 800274e:	f022 02f8 	bic.w	r2, r2, #248	; 0xf8
 8002752:	ea42 02c1 	orr.w	r2, r2, r1, lsl #3
 8002756:	601a      	str	r2, [r3, #0]
 8002758:	e784      	b.n	8002664 <HAL_RCC_OscConfig+0x14>
 800275a:	68e2      	ldr	r2, [r4, #12]
 800275c:	4b70      	ldr	r3, [pc, #448]	; (8002920 <HAL_RCC_OscConfig+0x2d0>)
 800275e:	b1b2      	cbz	r2, 800278e <HAL_RCC_OscConfig+0x13e>
 8002760:	2201      	movs	r2, #1
 8002762:	601a      	str	r2, [r3, #0]
 8002764:	f7ff f9d8 	bl	8001b18 <HAL_GetTick>
 8002768:	4d6c      	ldr	r5, [pc, #432]	; (800291c <HAL_RCC_OscConfig+0x2cc>)
 800276a:	4606      	mov	r6, r0
 800276c:	682b      	ldr	r3, [r5, #0]
 800276e:	0798      	lsls	r0, r3, #30
 8002770:	d507      	bpl.n	8002782 <HAL_RCC_OscConfig+0x132>
 8002772:	682b      	ldr	r3, [r5, #0]
 8002774:	6922      	ldr	r2, [r4, #16]
 8002776:	f023 03f8 	bic.w	r3, r3, #248	; 0xf8
 800277a:	ea43 03c2 	orr.w	r3, r3, r2, lsl #3
 800277e:	602b      	str	r3, [r5, #0]
 8002780:	e770      	b.n	8002664 <HAL_RCC_OscConfig+0x14>
 8002782:	f7ff f9c9 	bl	8001b18 <HAL_GetTick>
 8002786:	1b80      	subs	r0, r0, r6
 8002788:	2802      	cmp	r0, #2
 800278a:	d9ef      	bls.n	800276c <HAL_RCC_OscConfig+0x11c>
 800278c:	e7a3      	b.n	80026d6 <HAL_RCC_OscConfig+0x86>
 800278e:	601a      	str	r2, [r3, #0]
 8002790:	f7ff f9c2 	bl	8001b18 <HAL_GetTick>
 8002794:	4e61      	ldr	r6, [pc, #388]	; (800291c <HAL_RCC_OscConfig+0x2cc>)
 8002796:	4605      	mov	r5, r0
 8002798:	6833      	ldr	r3, [r6, #0]
 800279a:	0799      	lsls	r1, r3, #30
 800279c:	f57f af62 	bpl.w	8002664 <HAL_RCC_OscConfig+0x14>
 80027a0:	f7ff f9ba 	bl	8001b18 <HAL_GetTick>
 80027a4:	1b40      	subs	r0, r0, r5
 80027a6:	2802      	cmp	r0, #2
 80027a8:	d9f6      	bls.n	8002798 <HAL_RCC_OscConfig+0x148>
 80027aa:	e794      	b.n	80026d6 <HAL_RCC_OscConfig+0x86>
 80027ac:	6962      	ldr	r2, [r4, #20]
 80027ae:	4b5d      	ldr	r3, [pc, #372]	; (8002924 <HAL_RCC_OscConfig+0x2d4>)
 80027b0:	b17a      	cbz	r2, 80027d2 <HAL_RCC_OscConfig+0x182>
 80027b2:	2201      	movs	r2, #1
 80027b4:	601a      	str	r2, [r3, #0]
 80027b6:	f7ff f9af 	bl	8001b18 <HAL_GetTick>
 80027ba:	4e58      	ldr	r6, [pc, #352]	; (800291c <HAL_RCC_OscConfig+0x2cc>)
 80027bc:	4605      	mov	r5, r0
 80027be:	6f73      	ldr	r3, [r6, #116]	; 0x74
 80027c0:	079f      	lsls	r7, r3, #30
 80027c2:	f53f af53 	bmi.w	800266c <HAL_RCC_OscConfig+0x1c>
 80027c6:	f7ff f9a7 	bl	8001b18 <HAL_GetTick>
 80027ca:	1b40      	subs	r0, r0, r5
 80027cc:	2802      	cmp	r0, #2
 80027ce:	d9f6      	bls.n	80027be <HAL_RCC_OscConfig+0x16e>
 80027d0:	e781      	b.n	80026d6 <HAL_RCC_OscConfig+0x86>
 80027d2:	601a      	str	r2, [r3, #0]
 80027d4:	f7ff f9a0 	bl	8001b18 <HAL_GetTick>
 80027d8:	4e50      	ldr	r6, [pc, #320]	; (800291c <HAL_RCC_OscConfig+0x2cc>)
 80027da:	4605      	mov	r5, r0
 80027dc:	6f73      	ldr	r3, [r6, #116]	; 0x74
 80027de:	0798      	lsls	r0, r3, #30
 80027e0:	f57f af44 	bpl.w	800266c <HAL_RCC_OscConfig+0x1c>
 80027e4:	f7ff f998 	bl	8001b18 <HAL_GetTick>
 80027e8:	1b40      	subs	r0, r0, r5
 80027ea:	2802      	cmp	r0, #2
 80027ec:	d9f6      	bls.n	80027dc <HAL_RCC_OscConfig+0x18c>
 80027ee:	e772      	b.n	80026d6 <HAL_RCC_OscConfig+0x86>
 80027f0:	4b4a      	ldr	r3, [pc, #296]	; (800291c <HAL_RCC_OscConfig+0x2cc>)
 80027f2:	6c1a      	ldr	r2, [r3, #64]	; 0x40
 80027f4:	f012 5280 	ands.w	r2, r2, #268435456	; 0x10000000
 80027f8:	d128      	bne.n	800284c <HAL_RCC_OscConfig+0x1fc>
 80027fa:	9201      	str	r2, [sp, #4]
 80027fc:	6c1a      	ldr	r2, [r3, #64]	; 0x40
 80027fe:	f042 5280 	orr.w	r2, r2, #268435456	; 0x10000000
 8002802:	641a      	str	r2, [r3, #64]	; 0x40
 8002804:	6c1b      	ldr	r3, [r3, #64]	; 0x40
 8002806:	f003 5380 	and.w	r3, r3, #268435456	; 0x10000000
 800280a:	9301      	str	r3, [sp, #4]
 800280c:	9b01      	ldr	r3, [sp, #4]
 800280e:	2701      	movs	r7, #1
 8002810:	4d45      	ldr	r5, [pc, #276]	; (8002928 <HAL_RCC_OscConfig+0x2d8>)
 8002812:	682b      	ldr	r3, [r5, #0]
 8002814:	05d9      	lsls	r1, r3, #23
 8002816:	d51b      	bpl.n	8002850 <HAL_RCC_OscConfig+0x200>
 8002818:	68a3      	ldr	r3, [r4, #8]
 800281a:	4d40      	ldr	r5, [pc, #256]	; (800291c <HAL_RCC_OscConfig+0x2cc>)
 800281c:	2b01      	cmp	r3, #1
 800281e:	d127      	bne.n	8002870 <HAL_RCC_OscConfig+0x220>
 8002820:	6f2b      	ldr	r3, [r5, #112]	; 0x70
 8002822:	f043 0301 	orr.w	r3, r3, #1
 8002826:	672b      	str	r3, [r5, #112]	; 0x70
 8002828:	f7ff f976 	bl	8001b18 <HAL_GetTick>
 800282c:	4e3b      	ldr	r6, [pc, #236]	; (800291c <HAL_RCC_OscConfig+0x2cc>)
 800282e:	4605      	mov	r5, r0
 8002830:	f241 3888 	movw	r8, #5000	; 0x1388
 8002834:	6f33      	ldr	r3, [r6, #112]	; 0x70
 8002836:	079b      	lsls	r3, r3, #30
 8002838:	d539      	bpl.n	80028ae <HAL_RCC_OscConfig+0x25e>
 800283a:	2f00      	cmp	r7, #0
 800283c:	f43f af1a 	beq.w	8002674 <HAL_RCC_OscConfig+0x24>
 8002840:	4a36      	ldr	r2, [pc, #216]	; (800291c <HAL_RCC_OscConfig+0x2cc>)
 8002842:	6c13      	ldr	r3, [r2, #64]	; 0x40
 8002844:	f023 5380 	bic.w	r3, r3, #268435456	; 0x10000000
 8002848:	6413      	str	r3, [r2, #64]	; 0x40
 800284a:	e713      	b.n	8002674 <HAL_RCC_OscConfig+0x24>
 800284c:	2700      	movs	r7, #0
 800284e:	e7df      	b.n	8002810 <HAL_RCC_OscConfig+0x1c0>
 8002850:	682b      	ldr	r3, [r5, #0]
 8002852:	f443 7380 	orr.w	r3, r3, #256	; 0x100
 8002856:	602b      	str	r3, [r5, #0]
 8002858:	f7ff f95e 	bl	8001b18 <HAL_GetTick>
 800285c:	4606      	mov	r6, r0
 800285e:	682b      	ldr	r3, [r5, #0]
 8002860:	05da      	lsls	r2, r3, #23
 8002862:	d4d9      	bmi.n	8002818 <HAL_RCC_OscConfig+0x1c8>
 8002864:	f7ff f958 	bl	8001b18 <HAL_GetTick>
 8002868:	1b80      	subs	r0, r0, r6
 800286a:	2802      	cmp	r0, #2
 800286c:	d9f7      	bls.n	800285e <HAL_RCC_OscConfig+0x20e>
 800286e:	e732      	b.n	80026d6 <HAL_RCC_OscConfig+0x86>
 8002870:	2b05      	cmp	r3, #5
 8002872:	d104      	bne.n	800287e <HAL_RCC_OscConfig+0x22e>
 8002874:	6f2b      	ldr	r3, [r5, #112]	; 0x70
 8002876:	f043 0304 	orr.w	r3, r3, #4
 800287a:	672b      	str	r3, [r5, #112]	; 0x70
 800287c:	e7d0      	b.n	8002820 <HAL_RCC_OscConfig+0x1d0>
 800287e:	6f2a      	ldr	r2, [r5, #112]	; 0x70
 8002880:	f022 0201 	bic.w	r2, r2, #1
 8002884:	672a      	str	r2, [r5, #112]	; 0x70
 8002886:	6f2a      	ldr	r2, [r5, #112]	; 0x70
 8002888:	f022 0204 	bic.w	r2, r2, #4
 800288c:	672a      	str	r2, [r5, #112]	; 0x70
 800288e:	2b00      	cmp	r3, #0
 8002890:	d1ca      	bne.n	8002828 <HAL_RCC_OscConfig+0x1d8>
 8002892:	f7ff f941 	bl	8001b18 <HAL_GetTick>
 8002896:	f241 3888 	movw	r8, #5000	; 0x1388
 800289a:	4606      	mov	r6, r0
 800289c:	6f2b      	ldr	r3, [r5, #112]	; 0x70
 800289e:	0798      	lsls	r0, r3, #30
 80028a0:	d5cb      	bpl.n	800283a <HAL_RCC_OscConfig+0x1ea>
 80028a2:	f7ff f939 	bl	8001b18 <HAL_GetTick>
 80028a6:	1b80      	subs	r0, r0, r6
 80028a8:	4540      	cmp	r0, r8
 80028aa:	d9f7      	bls.n	800289c <HAL_RCC_OscConfig+0x24c>
 80028ac:	e713      	b.n	80026d6 <HAL_RCC_OscConfig+0x86>
 80028ae:	f7ff f933 	bl	8001b18 <HAL_GetTick>
 80028b2:	1b40      	subs	r0, r0, r5
 80028b4:	4540      	cmp	r0, r8
 80028b6:	d9bd      	bls.n	8002834 <HAL_RCC_OscConfig+0x1e4>
 80028b8:	e70d      	b.n	80026d6 <HAL_RCC_OscConfig+0x86>
 80028ba:	4d18      	ldr	r5, [pc, #96]	; (800291c <HAL_RCC_OscConfig+0x2cc>)
 80028bc:	68ab      	ldr	r3, [r5, #8]
 80028be:	f003 030c 	and.w	r3, r3, #12
 80028c2:	2b08      	cmp	r3, #8
 80028c4:	d047      	beq.n	8002956 <HAL_RCC_OscConfig+0x306>
 80028c6:	4e19      	ldr	r6, [pc, #100]	; (800292c <HAL_RCC_OscConfig+0x2dc>)
 80028c8:	2300      	movs	r3, #0
 80028ca:	2802      	cmp	r0, #2
 80028cc:	6033      	str	r3, [r6, #0]
 80028ce:	d135      	bne.n	800293c <HAL_RCC_OscConfig+0x2ec>
 80028d0:	f7ff f922 	bl	8001b18 <HAL_GetTick>
 80028d4:	4607      	mov	r7, r0
 80028d6:	682b      	ldr	r3, [r5, #0]
 80028d8:	0199      	lsls	r1, r3, #6
 80028da:	d429      	bmi.n	8002930 <HAL_RCC_OscConfig+0x2e0>
 80028dc:	e9d4 3207 	ldrd	r3, r2, [r4, #28]
 80028e0:	4313      	orrs	r3, r2
 80028e2:	6a62      	ldr	r2, [r4, #36]	; 0x24
 80028e4:	ea43 1382 	orr.w	r3, r3, r2, lsl #6
 80028e8:	6ae2      	ldr	r2, [r4, #44]	; 0x2c
 80028ea:	ea43 6302 	orr.w	r3, r3, r2, lsl #24
 80028ee:	6aa2      	ldr	r2, [r4, #40]	; 0x28
 80028f0:	0852      	lsrs	r2, r2, #1
 80028f2:	3a01      	subs	r2, #1
 80028f4:	ea43 4302 	orr.w	r3, r3, r2, lsl #16
 80028f8:	606b      	str	r3, [r5, #4]
 80028fa:	2301      	movs	r3, #1
 80028fc:	6033      	str	r3, [r6, #0]
 80028fe:	f7ff f90b 	bl	8001b18 <HAL_GetTick>
 8002902:	4d06      	ldr	r5, [pc, #24]	; (800291c <HAL_RCC_OscConfig+0x2cc>)
 8002904:	4604      	mov	r4, r0
 8002906:	682b      	ldr	r3, [r5, #0]
 8002908:	019a      	lsls	r2, r3, #6
 800290a:	f53f aeb7 	bmi.w	800267c <HAL_RCC_OscConfig+0x2c>
 800290e:	f7ff f903 	bl	8001b18 <HAL_GetTick>
 8002912:	1b00      	subs	r0, r0, r4
 8002914:	2802      	cmp	r0, #2
 8002916:	d9f6      	bls.n	8002906 <HAL_RCC_OscConfig+0x2b6>
 8002918:	e6dd      	b.n	80026d6 <HAL_RCC_OscConfig+0x86>
 800291a:	bf00      	nop
 800291c:	40023800 	.word	0x40023800
 8002920:	42470000 	.word	0x42470000
 8002924:	42470e80 	.word	0x42470e80
 8002928:	40007000 	.word	0x40007000
 800292c:	42470060 	.word	0x42470060
 8002930:	f7ff f8f2 	bl	8001b18 <HAL_GetTick>
 8002934:	1bc0      	subs	r0, r0, r7
 8002936:	2802      	cmp	r0, #2
 8002938:	d9cd      	bls.n	80028d6 <HAL_RCC_OscConfig+0x286>
 800293a:	e6cc      	b.n	80026d6 <HAL_RCC_OscConfig+0x86>
 800293c:	f7ff f8ec 	bl	8001b18 <HAL_GetTick>
 8002940:	4604      	mov	r4, r0
 8002942:	682b      	ldr	r3, [r5, #0]
 8002944:	019b      	lsls	r3, r3, #6
 8002946:	f57f ae99 	bpl.w	800267c <HAL_RCC_OscConfig+0x2c>
 800294a:	f7ff f8e5 	bl	8001b18 <HAL_GetTick>
 800294e:	1b00      	subs	r0, r0, r4
 8002950:	2802      	cmp	r0, #2
 8002952:	d9f6      	bls.n	8002942 <HAL_RCC_OscConfig+0x2f2>
 8002954:	e6bf      	b.n	80026d6 <HAL_RCC_OscConfig+0x86>
 8002956:	2801      	cmp	r0, #1
 8002958:	f43f aebe 	beq.w	80026d8 <HAL_RCC_OscConfig+0x88>
 800295c:	686b      	ldr	r3, [r5, #4]
 800295e:	69e2      	ldr	r2, [r4, #28]
 8002960:	f403 0180 	and.w	r1, r3, #4194304	; 0x400000
 8002964:	4291      	cmp	r1, r2
 8002966:	f47f aea0 	bne.w	80026aa <HAL_RCC_OscConfig+0x5a>
 800296a:	6a21      	ldr	r1, [r4, #32]
 800296c:	f003 023f 	and.w	r2, r3, #63	; 0x3f
 8002970:	428a      	cmp	r2, r1
 8002972:	f47f ae9a 	bne.w	80026aa <HAL_RCC_OscConfig+0x5a>
 8002976:	6a61      	ldr	r1, [r4, #36]	; 0x24
 8002978:	f647 72c0 	movw	r2, #32704	; 0x7fc0
 800297c:	401a      	ands	r2, r3
 800297e:	ebb2 1f81 	cmp.w	r2, r1, lsl #6
 8002982:	f47f ae92 	bne.w	80026aa <HAL_RCC_OscConfig+0x5a>
 8002986:	6aa2      	ldr	r2, [r4, #40]	; 0x28
 8002988:	0852      	lsrs	r2, r2, #1
 800298a:	f403 3140 	and.w	r1, r3, #196608	; 0x30000
 800298e:	3a01      	subs	r2, #1
 8002990:	ebb1 4f02 	cmp.w	r1, r2, lsl #16
 8002994:	f47f ae89 	bne.w	80026aa <HAL_RCC_OscConfig+0x5a>
 8002998:	6ae2      	ldr	r2, [r4, #44]	; 0x2c
 800299a:	f003 6370 	and.w	r3, r3, #251658240	; 0xf000000
 800299e:	ebb3 6f02 	cmp.w	r3, r2, lsl #24
 80029a2:	f43f ae6b 	beq.w	800267c <HAL_RCC_OscConfig+0x2c>
 80029a6:	e680      	b.n	80026aa <HAL_RCC_OscConfig+0x5a>

080029a8 <HAL_RCC_GetSysClockFreq>:
 80029a8:	4913      	ldr	r1, [pc, #76]	; (80029f8 <HAL_RCC_GetSysClockFreq+0x50>)
 80029aa:	b508      	push	{r3, lr}
 80029ac:	688b      	ldr	r3, [r1, #8]
 80029ae:	f003 030c 	and.w	r3, r3, #12
 80029b2:	2b04      	cmp	r3, #4
 80029b4:	d01c      	beq.n	80029f0 <HAL_RCC_GetSysClockFreq+0x48>
 80029b6:	2b08      	cmp	r3, #8
 80029b8:	d11c      	bne.n	80029f4 <HAL_RCC_GetSysClockFreq+0x4c>
 80029ba:	684a      	ldr	r2, [r1, #4]
 80029bc:	684b      	ldr	r3, [r1, #4]
 80029be:	6849      	ldr	r1, [r1, #4]
 80029c0:	f413 0380 	ands.w	r3, r3, #4194304	; 0x400000
 80029c4:	bf14      	ite	ne
 80029c6:	480d      	ldrne	r0, [pc, #52]	; (80029fc <HAL_RCC_GetSysClockFreq+0x54>)
 80029c8:	480d      	ldreq	r0, [pc, #52]	; (8002a00 <HAL_RCC_GetSysClockFreq+0x58>)
 80029ca:	f3c1 1188 	ubfx	r1, r1, #6, #9
 80029ce:	bf18      	it	ne
 80029d0:	2300      	movne	r3, #0
 80029d2:	f002 023f 	and.w	r2, r2, #63	; 0x3f
 80029d6:	fba1 0100 	umull	r0, r1, r1, r0
 80029da:	f7fe f935 	bl	8000c48 <__aeabi_uldivmod>
 80029de:	4b06      	ldr	r3, [pc, #24]	; (80029f8 <HAL_RCC_GetSysClockFreq+0x50>)
 80029e0:	685b      	ldr	r3, [r3, #4]
 80029e2:	f3c3 4301 	ubfx	r3, r3, #16, #2
 80029e6:	3301      	adds	r3, #1
 80029e8:	005b      	lsls	r3, r3, #1
 80029ea:	fbb0 f0f3 	udiv	r0, r0, r3
 80029ee:	bd08      	pop	{r3, pc}
 80029f0:	4802      	ldr	r0, [pc, #8]	; (80029fc <HAL_RCC_GetSysClockFreq+0x54>)
 80029f2:	e7fc      	b.n	80029ee <HAL_RCC_GetSysClockFreq+0x46>
 80029f4:	4802      	ldr	r0, [pc, #8]	; (8002a00 <HAL_RCC_GetSysClockFreq+0x58>)
 80029f6:	e7fa      	b.n	80029ee <HAL_RCC_GetSysClockFreq+0x46>
 80029f8:	40023800 	.word	0x40023800
 80029fc:	007a1200 	.word	0x007a1200
 8002a00:	00f42400 	.word	0x00f42400

08002a04 <HAL_RCC_ClockConfig>:
 8002a04:	e92d 41f0 	stmdb	sp!, {r4, r5, r6, r7, r8, lr}
 8002a08:	460d      	mov	r5, r1
 8002a0a:	4604      	mov	r4, r0
 8002a0c:	b910      	cbnz	r0, 8002a14 <HAL_RCC_ClockConfig+0x10>
 8002a0e:	2001      	movs	r0, #1
 8002a10:	e8bd 81f0 	ldmia.w	sp!, {r4, r5, r6, r7, r8, pc}
 8002a14:	4b44      	ldr	r3, [pc, #272]	; (8002b28 <HAL_RCC_ClockConfig+0x124>)
 8002a16:	681a      	ldr	r2, [r3, #0]
 8002a18:	f002 0207 	and.w	r2, r2, #7
 8002a1c:	428a      	cmp	r2, r1
 8002a1e:	d328      	bcc.n	8002a72 <HAL_RCC_ClockConfig+0x6e>
 8002a20:	6822      	ldr	r2, [r4, #0]
 8002a22:	0797      	lsls	r7, r2, #30
 8002a24:	d42d      	bmi.n	8002a82 <HAL_RCC_ClockConfig+0x7e>
 8002a26:	07d0      	lsls	r0, r2, #31
 8002a28:	d441      	bmi.n	8002aae <HAL_RCC_ClockConfig+0xaa>
 8002a2a:	4b3f      	ldr	r3, [pc, #252]	; (8002b28 <HAL_RCC_ClockConfig+0x124>)
 8002a2c:	681a      	ldr	r2, [r3, #0]
 8002a2e:	f002 0207 	and.w	r2, r2, #7
 8002a32:	42aa      	cmp	r2, r5
 8002a34:	d866      	bhi.n	8002b04 <HAL_RCC_ClockConfig+0x100>
 8002a36:	6822      	ldr	r2, [r4, #0]
 8002a38:	0751      	lsls	r1, r2, #29
 8002a3a:	d46c      	bmi.n	8002b16 <HAL_RCC_ClockConfig+0x112>
 8002a3c:	0713      	lsls	r3, r2, #28
 8002a3e:	d507      	bpl.n	8002a50 <HAL_RCC_ClockConfig+0x4c>
 8002a40:	4a3a      	ldr	r2, [pc, #232]	; (8002b2c <HAL_RCC_ClockConfig+0x128>)
 8002a42:	6921      	ldr	r1, [r4, #16]
 8002a44:	6893      	ldr	r3, [r2, #8]
 8002a46:	f423 4360 	bic.w	r3, r3, #57344	; 0xe000
 8002a4a:	ea43 03c1 	orr.w	r3, r3, r1, lsl #3
 8002a4e:	6093      	str	r3, [r2, #8]
 8002a50:	f7ff ffaa 	bl	80029a8 <HAL_RCC_GetSysClockFreq>
 8002a54:	4b35      	ldr	r3, [pc, #212]	; (8002b2c <HAL_RCC_ClockConfig+0x128>)
 8002a56:	4a36      	ldr	r2, [pc, #216]	; (8002b30 <HAL_RCC_ClockConfig+0x12c>)
 8002a58:	689b      	ldr	r3, [r3, #8]
 8002a5a:	f3c3 1303 	ubfx	r3, r3, #4, #4
 8002a5e:	5cd3      	ldrb	r3, [r2, r3]
 8002a60:	40d8      	lsrs	r0, r3
 8002a62:	4b34      	ldr	r3, [pc, #208]	; (8002b34 <HAL_RCC_ClockConfig+0x130>)
 8002a64:	6018      	str	r0, [r3, #0]
 8002a66:	4b34      	ldr	r3, [pc, #208]	; (8002b38 <HAL_RCC_ClockConfig+0x134>)
 8002a68:	6818      	ldr	r0, [r3, #0]
 8002a6a:	f7ff f80b 	bl	8001a84 <HAL_InitTick>
 8002a6e:	2000      	movs	r0, #0
 8002a70:	e7ce      	b.n	8002a10 <HAL_RCC_ClockConfig+0xc>
 8002a72:	b2ca      	uxtb	r2, r1
 8002a74:	701a      	strb	r2, [r3, #0]
 8002a76:	681b      	ldr	r3, [r3, #0]
 8002a78:	f003 0307 	and.w	r3, r3, #7
 8002a7c:	428b      	cmp	r3, r1
 8002a7e:	d1c6      	bne.n	8002a0e <HAL_RCC_ClockConfig+0xa>
 8002a80:	e7ce      	b.n	8002a20 <HAL_RCC_ClockConfig+0x1c>
 8002a82:	4b2a      	ldr	r3, [pc, #168]	; (8002b2c <HAL_RCC_ClockConfig+0x128>)
 8002a84:	f012 0f04 	tst.w	r2, #4
 8002a88:	bf1e      	ittt	ne
 8002a8a:	6899      	ldrne	r1, [r3, #8]
 8002a8c:	f441 51e0 	orrne.w	r1, r1, #7168	; 0x1c00
 8002a90:	6099      	strne	r1, [r3, #8]
 8002a92:	0716      	lsls	r6, r2, #28
 8002a94:	bf42      	ittt	mi
 8002a96:	6899      	ldrmi	r1, [r3, #8]
 8002a98:	f441 4160 	orrmi.w	r1, r1, #57344	; 0xe000
 8002a9c:	6099      	strmi	r1, [r3, #8]
 8002a9e:	4923      	ldr	r1, [pc, #140]	; (8002b2c <HAL_RCC_ClockConfig+0x128>)
 8002aa0:	68a0      	ldr	r0, [r4, #8]
 8002aa2:	688b      	ldr	r3, [r1, #8]
 8002aa4:	f023 03f0 	bic.w	r3, r3, #240	; 0xf0
 8002aa8:	4303      	orrs	r3, r0
 8002aaa:	608b      	str	r3, [r1, #8]
 8002aac:	e7bb      	b.n	8002a26 <HAL_RCC_ClockConfig+0x22>
 8002aae:	6862      	ldr	r2, [r4, #4]
 8002ab0:	4b1e      	ldr	r3, [pc, #120]	; (8002b2c <HAL_RCC_ClockConfig+0x128>)
 8002ab2:	2a01      	cmp	r2, #1
 8002ab4:	d11c      	bne.n	8002af0 <HAL_RCC_ClockConfig+0xec>
 8002ab6:	681b      	ldr	r3, [r3, #0]
 8002ab8:	f413 3f00 	tst.w	r3, #131072	; 0x20000
 8002abc:	d0a7      	beq.n	8002a0e <HAL_RCC_ClockConfig+0xa>
 8002abe:	4e1b      	ldr	r6, [pc, #108]	; (8002b2c <HAL_RCC_ClockConfig+0x128>)
 8002ac0:	68b3      	ldr	r3, [r6, #8]
 8002ac2:	f023 0303 	bic.w	r3, r3, #3
 8002ac6:	4313      	orrs	r3, r2
 8002ac8:	60b3      	str	r3, [r6, #8]
 8002aca:	f7ff f825 	bl	8001b18 <HAL_GetTick>
 8002ace:	f241 3888 	movw	r8, #5000	; 0x1388
 8002ad2:	4607      	mov	r7, r0
 8002ad4:	68b3      	ldr	r3, [r6, #8]
 8002ad6:	6862      	ldr	r2, [r4, #4]
 8002ad8:	f003 030c 	and.w	r3, r3, #12
 8002adc:	ebb3 0f82 	cmp.w	r3, r2, lsl #2
 8002ae0:	d0a3      	beq.n	8002a2a <HAL_RCC_ClockConfig+0x26>
 8002ae2:	f7ff f819 	bl	8001b18 <HAL_GetTick>
 8002ae6:	1bc0      	subs	r0, r0, r7
 8002ae8:	4540      	cmp	r0, r8
 8002aea:	d9f3      	bls.n	8002ad4 <HAL_RCC_ClockConfig+0xd0>
 8002aec:	2003      	movs	r0, #3
 8002aee:	e78f      	b.n	8002a10 <HAL_RCC_ClockConfig+0xc>
 8002af0:	1e91      	subs	r1, r2, #2
 8002af2:	2901      	cmp	r1, #1
 8002af4:	681b      	ldr	r3, [r3, #0]
 8002af6:	d802      	bhi.n	8002afe <HAL_RCC_ClockConfig+0xfa>
 8002af8:	f013 7f00 	tst.w	r3, #33554432	; 0x2000000
 8002afc:	e7de      	b.n	8002abc <HAL_RCC_ClockConfig+0xb8>
 8002afe:	f013 0f02 	tst.w	r3, #2
 8002b02:	e7db      	b.n	8002abc <HAL_RCC_ClockConfig+0xb8>
 8002b04:	b2ea      	uxtb	r2, r5
 8002b06:	701a      	strb	r2, [r3, #0]
 8002b08:	681b      	ldr	r3, [r3, #0]
 8002b0a:	f003 0307 	and.w	r3, r3, #7
 8002b0e:	42ab      	cmp	r3, r5
 8002b10:	f47f af7d 	bne.w	8002a0e <HAL_RCC_ClockConfig+0xa>
 8002b14:	e78f      	b.n	8002a36 <HAL_RCC_ClockConfig+0x32>
 8002b16:	4905      	ldr	r1, [pc, #20]	; (8002b2c <HAL_RCC_ClockConfig+0x128>)
 8002b18:	68e0      	ldr	r0, [r4, #12]
 8002b1a:	688b      	ldr	r3, [r1, #8]
 8002b1c:	f423 53e0 	bic.w	r3, r3, #7168	; 0x1c00
 8002b20:	4303      	orrs	r3, r0
 8002b22:	608b      	str	r3, [r1, #8]
 8002b24:	e78a      	b.n	8002a3c <HAL_RCC_ClockConfig+0x38>
 8002b26:	bf00      	nop
 8002b28:	40023c00 	.word	0x40023c00
 8002b2c:	40023800 	.word	0x40023800
 8002b30:	08005baf 	.word	0x08005baf
 8002b34:	20000000 	.word	0x20000000
 8002b38:	20000008 	.word	0x20000008

08002b3c <HAL_RCC_GetPCLK1Freq>:
 8002b3c:	4b04      	ldr	r3, [pc, #16]	; (8002b50 <HAL_RCC_GetPCLK1Freq+0x14>)
 8002b3e:	4a05      	ldr	r2, [pc, #20]	; (8002b54 <HAL_RCC_GetPCLK1Freq+0x18>)
 8002b40:	689b      	ldr	r3, [r3, #8]
 8002b42:	f3c3 2382 	ubfx	r3, r3, #10, #3
 8002b46:	5cd3      	ldrb	r3, [r2, r3]
 8002b48:	4a03      	ldr	r2, [pc, #12]	; (8002b58 <HAL_RCC_GetPCLK1Freq+0x1c>)
 8002b4a:	6810      	ldr	r0, [r2, #0]
 8002b4c:	40d8      	lsrs	r0, r3
 8002b4e:	4770      	bx	lr
 8002b50:	40023800 	.word	0x40023800
 8002b54:	08005bbf 	.word	0x08005bbf
 8002b58:	20000000 	.word	0x20000000

08002b5c <HAL_RCC_GetPCLK2Freq>:
 8002b5c:	4b04      	ldr	r3, [pc, #16]	; (8002b70 <HAL_RCC_GetPCLK2Freq+0x14>)
 8002b5e:	4a05      	ldr	r2, [pc, #20]	; (8002b74 <HAL_RCC_GetPCLK2Freq+0x18>)
 8002b60:	689b      	ldr	r3, [r3, #8]
 8002b62:	f3c3 3342 	ubfx	r3, r3, #13, #3
 8002b66:	5cd3      	ldrb	r3, [r2, r3]
 8002b68:	4a03      	ldr	r2, [pc, #12]	; (8002b78 <HAL_RCC_GetPCLK2Freq+0x1c>)
 8002b6a:	6810      	ldr	r0, [r2, #0]
 8002b6c:	40d8      	lsrs	r0, r3
 8002b6e:	4770      	bx	lr
 8002b70:	40023800 	.word	0x40023800
 8002b74:	08005bbf 	.word	0x08005bbf
 8002b78:	20000000 	.word	0x20000000

08002b7c <UART_SetConfig>:
 8002b7c:	6802      	ldr	r2, [r0, #0]
 8002b7e:	68c1      	ldr	r1, [r0, #12]
 8002b80:	b538      	push	{r3, r4, r5, lr}
 8002b82:	6913      	ldr	r3, [r2, #16]
 8002b84:	f423 5340 	bic.w	r3, r3, #12288	; 0x3000
 8002b88:	430b      	orrs	r3, r1
 8002b8a:	6113      	str	r3, [r2, #16]
 8002b8c:	4605      	mov	r5, r0
 8002b8e:	6883      	ldr	r3, [r0, #8]
 8002b90:	6900      	ldr	r0, [r0, #16]
 8002b92:	68d1      	ldr	r1, [r2, #12]
 8002b94:	4303      	orrs	r3, r0
 8002b96:	6968      	ldr	r0, [r5, #20]
 8002b98:	4303      	orrs	r3, r0
 8002b9a:	69e8      	ldr	r0, [r5, #28]
 8002b9c:	f421 4116 	bic.w	r1, r1, #38400	; 0x9600
 8002ba0:	f021 010c 	bic.w	r1, r1, #12
 8002ba4:	4303      	orrs	r3, r0
 8002ba6:	430b      	orrs	r3, r1
 8002ba8:	60d3      	str	r3, [r2, #12]
 8002baa:	6953      	ldr	r3, [r2, #20]
 8002bac:	69a9      	ldr	r1, [r5, #24]
 8002bae:	f423 7340 	bic.w	r3, r3, #768	; 0x300
 8002bb2:	430b      	orrs	r3, r1
 8002bb4:	6153      	str	r3, [r2, #20]
 8002bb6:	4b1f      	ldr	r3, [pc, #124]	; (8002c34 <UART_SetConfig+0xb8>)
 8002bb8:	429a      	cmp	r2, r3
 8002bba:	d003      	beq.n	8002bc4 <UART_SetConfig+0x48>
 8002bbc:	f503 6380 	add.w	r3, r3, #1024	; 0x400
 8002bc0:	429a      	cmp	r2, r3
 8002bc2:	d124      	bne.n	8002c0e <UART_SetConfig+0x92>
 8002bc4:	f7ff ffca 	bl	8002b5c <HAL_RCC_GetPCLK2Freq>
 8002bc8:	69ea      	ldr	r2, [r5, #28]
 8002bca:	2319      	movs	r3, #25
 8002bcc:	f5b2 4f00 	cmp.w	r2, #32768	; 0x8000
 8002bd0:	fba0 0103 	umull	r0, r1, r0, r3
 8002bd4:	e9d5 4300 	ldrd	r4, r3, [r5]
 8002bd8:	d11c      	bne.n	8002c14 <UART_SetConfig+0x98>
 8002bda:	461a      	mov	r2, r3
 8002bdc:	1892      	adds	r2, r2, r2
 8002bde:	f04f 0300 	mov.w	r3, #0
 8002be2:	415b      	adcs	r3, r3
 8002be4:	f7fe f830 	bl	8000c48 <__aeabi_uldivmod>
 8002be8:	2164      	movs	r1, #100	; 0x64
 8002bea:	fbb0 f5f1 	udiv	r5, r0, r1
 8002bee:	fb01 0315 	mls	r3, r1, r5, r0
 8002bf2:	00db      	lsls	r3, r3, #3
 8002bf4:	3332      	adds	r3, #50	; 0x32
 8002bf6:	fbb3 f3f1 	udiv	r3, r3, r1
 8002bfa:	f003 0207 	and.w	r2, r3, #7
 8002bfe:	005b      	lsls	r3, r3, #1
 8002c00:	eb02 1205 	add.w	r2, r2, r5, lsl #4
 8002c04:	f403 73f8 	and.w	r3, r3, #496	; 0x1f0
 8002c08:	4413      	add	r3, r2
 8002c0a:	60a3      	str	r3, [r4, #8]
 8002c0c:	bd38      	pop	{r3, r4, r5, pc}
 8002c0e:	f7ff ff95 	bl	8002b3c <HAL_RCC_GetPCLK1Freq>
 8002c12:	e7d9      	b.n	8002bc8 <UART_SetConfig+0x4c>
 8002c14:	009a      	lsls	r2, r3, #2
 8002c16:	0f9b      	lsrs	r3, r3, #30
 8002c18:	f7fe f816 	bl	8000c48 <__aeabi_uldivmod>
 8002c1c:	2264      	movs	r2, #100	; 0x64
 8002c1e:	fbb0 f1f2 	udiv	r1, r0, r2
 8002c22:	fb02 0311 	mls	r3, r2, r1, r0
 8002c26:	011b      	lsls	r3, r3, #4
 8002c28:	3332      	adds	r3, #50	; 0x32
 8002c2a:	fbb3 f3f2 	udiv	r3, r3, r2
 8002c2e:	eb03 1301 	add.w	r3, r3, r1, lsl #4
 8002c32:	e7ea      	b.n	8002c0a <UART_SetConfig+0x8e>
 8002c34:	40011000 	.word	0x40011000

08002c38 <UART_WaitOnFlagUntilTimeout.constprop.0>:
 8002c38:	b5f8      	push	{r3, r4, r5, r6, r7, lr}
 8002c3a:	4604      	mov	r4, r0
 8002c3c:	460e      	mov	r6, r1
 8002c3e:	4617      	mov	r7, r2
 8002c40:	461d      	mov	r5, r3
 8002c42:	6822      	ldr	r2, [r4, #0]
 8002c44:	6813      	ldr	r3, [r2, #0]
 8002c46:	ea36 0303 	bics.w	r3, r6, r3
 8002c4a:	d101      	bne.n	8002c50 <UART_WaitOnFlagUntilTimeout.constprop.0+0x18>
 8002c4c:	2000      	movs	r0, #0
 8002c4e:	e028      	b.n	8002ca2 <UART_WaitOnFlagUntilTimeout.constprop.0+0x6a>
 8002c50:	1c6b      	adds	r3, r5, #1
 8002c52:	d0f7      	beq.n	8002c44 <UART_WaitOnFlagUntilTimeout.constprop.0+0xc>
 8002c54:	b125      	cbz	r5, 8002c60 <UART_WaitOnFlagUntilTimeout.constprop.0+0x28>
 8002c56:	f7fe ff5f 	bl	8001b18 <HAL_GetTick>
 8002c5a:	1bc0      	subs	r0, r0, r7
 8002c5c:	4285      	cmp	r5, r0
 8002c5e:	d2f0      	bcs.n	8002c42 <UART_WaitOnFlagUntilTimeout.constprop.0+0xa>
 8002c60:	6822      	ldr	r2, [r4, #0]
 8002c62:	f102 030c 	add.w	r3, r2, #12
 8002c66:	e853 3f00 	ldrex	r3, [r3]
 8002c6a:	f423 73d0 	bic.w	r3, r3, #416	; 0x1a0
 8002c6e:	320c      	adds	r2, #12
 8002c70:	e842 3000 	strex	r0, r3, [r2]
 8002c74:	6821      	ldr	r1, [r4, #0]
 8002c76:	2800      	cmp	r0, #0
 8002c78:	d1f2      	bne.n	8002c60 <UART_WaitOnFlagUntilTimeout.constprop.0+0x28>
 8002c7a:	f101 0314 	add.w	r3, r1, #20
 8002c7e:	e853 3f00 	ldrex	r3, [r3]
 8002c82:	f023 0301 	bic.w	r3, r3, #1
 8002c86:	f101 0014 	add.w	r0, r1, #20
 8002c8a:	e840 3200 	strex	r2, r3, [r0]
 8002c8e:	2a00      	cmp	r2, #0
 8002c90:	d1f3      	bne.n	8002c7a <UART_WaitOnFlagUntilTimeout.constprop.0+0x42>
 8002c92:	2320      	movs	r3, #32
 8002c94:	f884 303d 	strb.w	r3, [r4, #61]	; 0x3d
 8002c98:	f884 203c 	strb.w	r2, [r4, #60]	; 0x3c
 8002c9c:	f884 303e 	strb.w	r3, [r4, #62]	; 0x3e
 8002ca0:	2003      	movs	r0, #3
 8002ca2:	bdf8      	pop	{r3, r4, r5, r6, r7, pc}

08002ca4 <HAL_UART_Init>:
 8002ca4:	b510      	push	{r4, lr}
 8002ca6:	4604      	mov	r4, r0
 8002ca8:	b340      	cbz	r0, 8002cfc <HAL_UART_Init+0x58>
 8002caa:	f890 303d 	ldrb.w	r3, [r0, #61]	; 0x3d
 8002cae:	f003 02ff 	and.w	r2, r3, #255	; 0xff
 8002cb2:	b91b      	cbnz	r3, 8002cbc <HAL_UART_Init+0x18>
 8002cb4:	f880 203c 	strb.w	r2, [r0, #60]	; 0x3c
 8002cb8:	f7fe fe14 	bl	80018e4 <HAL_UART_MspInit>
 8002cbc:	6822      	ldr	r2, [r4, #0]
 8002cbe:	2324      	movs	r3, #36	; 0x24
 8002cc0:	f884 303d 	strb.w	r3, [r4, #61]	; 0x3d
 8002cc4:	68d3      	ldr	r3, [r2, #12]
 8002cc6:	f423 5300 	bic.w	r3, r3, #8192	; 0x2000
 8002cca:	60d3      	str	r3, [r2, #12]
 8002ccc:	4620      	mov	r0, r4
 8002cce:	f7ff ff55 	bl	8002b7c <UART_SetConfig>
 8002cd2:	6823      	ldr	r3, [r4, #0]
 8002cd4:	691a      	ldr	r2, [r3, #16]
 8002cd6:	f422 4290 	bic.w	r2, r2, #18432	; 0x4800
 8002cda:	611a      	str	r2, [r3, #16]
 8002cdc:	695a      	ldr	r2, [r3, #20]
 8002cde:	f022 022a 	bic.w	r2, r2, #42	; 0x2a
 8002ce2:	615a      	str	r2, [r3, #20]
 8002ce4:	68da      	ldr	r2, [r3, #12]
 8002ce6:	f442 5200 	orr.w	r2, r2, #8192	; 0x2000
 8002cea:	60da      	str	r2, [r3, #12]
 8002cec:	2000      	movs	r0, #0
 8002cee:	2320      	movs	r3, #32
 8002cf0:	6420      	str	r0, [r4, #64]	; 0x40
 8002cf2:	f884 303d 	strb.w	r3, [r4, #61]	; 0x3d
 8002cf6:	f884 303e 	strb.w	r3, [r4, #62]	; 0x3e
 8002cfa:	bd10      	pop	{r4, pc}
 8002cfc:	2001      	movs	r0, #1
 8002cfe:	e7fc      	b.n	8002cfa <HAL_UART_Init+0x56>

08002d00 <HAL_UART_Transmit>:
 8002d00:	b5f7      	push	{r0, r1, r2, r4, r5, r6, r7, lr}
 8002d02:	4617      	mov	r7, r2
 8002d04:	f890 203d 	ldrb.w	r2, [r0, #61]	; 0x3d
 8002d08:	9300      	str	r3, [sp, #0]
 8002d0a:	2a20      	cmp	r2, #32
 8002d0c:	4604      	mov	r4, r0
 8002d0e:	460e      	mov	r6, r1
 8002d10:	d149      	bne.n	8002da6 <HAL_UART_Transmit+0xa6>
 8002d12:	2900      	cmp	r1, #0
 8002d14:	d045      	beq.n	8002da2 <HAL_UART_Transmit+0xa2>
 8002d16:	2f00      	cmp	r7, #0
 8002d18:	d043      	beq.n	8002da2 <HAL_UART_Transmit+0xa2>
 8002d1a:	f890 203c 	ldrb.w	r2, [r0, #60]	; 0x3c
 8002d1e:	2a01      	cmp	r2, #1
 8002d20:	d041      	beq.n	8002da6 <HAL_UART_Transmit+0xa6>
 8002d22:	2201      	movs	r2, #1
 8002d24:	f880 203c 	strb.w	r2, [r0, #60]	; 0x3c
 8002d28:	2500      	movs	r5, #0
 8002d2a:	2221      	movs	r2, #33	; 0x21
 8002d2c:	6405      	str	r5, [r0, #64]	; 0x40
 8002d2e:	f880 203d 	strb.w	r2, [r0, #61]	; 0x3d
 8002d32:	f7fe fef1 	bl	8001b18 <HAL_GetTick>
 8002d36:	68a1      	ldr	r1, [r4, #8]
 8002d38:	9b00      	ldr	r3, [sp, #0]
 8002d3a:	84a7      	strh	r7, [r4, #36]	; 0x24
 8002d3c:	f5b1 5f80 	cmp.w	r1, #4096	; 0x1000
 8002d40:	4602      	mov	r2, r0
 8002d42:	84e7      	strh	r7, [r4, #38]	; 0x26
 8002d44:	d103      	bne.n	8002d4e <HAL_UART_Transmit+0x4e>
 8002d46:	6921      	ldr	r1, [r4, #16]
 8002d48:	b909      	cbnz	r1, 8002d4e <HAL_UART_Transmit+0x4e>
 8002d4a:	4635      	mov	r5, r6
 8002d4c:	460e      	mov	r6, r1
 8002d4e:	2100      	movs	r1, #0
 8002d50:	f884 103c 	strb.w	r1, [r4, #60]	; 0x3c
 8002d54:	8ce1      	ldrh	r1, [r4, #38]	; 0x26
 8002d56:	b289      	uxth	r1, r1
 8002d58:	b941      	cbnz	r1, 8002d6c <HAL_UART_Transmit+0x6c>
 8002d5a:	2140      	movs	r1, #64	; 0x40
 8002d5c:	4620      	mov	r0, r4
 8002d5e:	f7ff ff6b 	bl	8002c38 <UART_WaitOnFlagUntilTimeout.constprop.0>
 8002d62:	b960      	cbnz	r0, 8002d7e <HAL_UART_Transmit+0x7e>
 8002d64:	2320      	movs	r3, #32
 8002d66:	f884 303d 	strb.w	r3, [r4, #61]	; 0x3d
 8002d6a:	e009      	b.n	8002d80 <HAL_UART_Transmit+0x80>
 8002d6c:	2180      	movs	r1, #128	; 0x80
 8002d6e:	4620      	mov	r0, r4
 8002d70:	e9cd 2300 	strd	r2, r3, [sp]
 8002d74:	f7ff ff60 	bl	8002c38 <UART_WaitOnFlagUntilTimeout.constprop.0>
 8002d78:	e9dd 2300 	ldrd	r2, r3, [sp]
 8002d7c:	b110      	cbz	r0, 8002d84 <HAL_UART_Transmit+0x84>
 8002d7e:	2003      	movs	r0, #3
 8002d80:	b003      	add	sp, #12
 8002d82:	bdf0      	pop	{r4, r5, r6, r7, pc}
 8002d84:	6820      	ldr	r0, [r4, #0]
 8002d86:	b94e      	cbnz	r6, 8002d9c <HAL_UART_Transmit+0x9c>
 8002d88:	f835 1b02 	ldrh.w	r1, [r5], #2
 8002d8c:	f3c1 0108 	ubfx	r1, r1, #0, #9
 8002d90:	6041      	str	r1, [r0, #4]
 8002d92:	8ce1      	ldrh	r1, [r4, #38]	; 0x26
 8002d94:	3901      	subs	r1, #1
 8002d96:	b289      	uxth	r1, r1
 8002d98:	84e1      	strh	r1, [r4, #38]	; 0x26
 8002d9a:	e7db      	b.n	8002d54 <HAL_UART_Transmit+0x54>
 8002d9c:	f816 1b01 	ldrb.w	r1, [r6], #1
 8002da0:	e7f6      	b.n	8002d90 <HAL_UART_Transmit+0x90>
 8002da2:	2001      	movs	r0, #1
 8002da4:	e7ec      	b.n	8002d80 <HAL_UART_Transmit+0x80>
 8002da6:	2002      	movs	r0, #2
 8002da8:	e7ea      	b.n	8002d80 <HAL_UART_Transmit+0x80>
	...

08002dac <__errno>:
 8002dac:	4b01      	ldr	r3, [pc, #4]	; (8002db4 <__errno+0x8>)
 8002dae:	6818      	ldr	r0, [r3, #0]
 8002db0:	4770      	bx	lr
 8002db2:	bf00      	nop
 8002db4:	2000000c 	.word	0x2000000c

08002db8 <__libc_init_array>:
 8002db8:	b570      	push	{r4, r5, r6, lr}
 8002dba:	4d0d      	ldr	r5, [pc, #52]	; (8002df0 <__libc_init_array+0x38>)
 8002dbc:	4c0d      	ldr	r4, [pc, #52]	; (8002df4 <__libc_init_array+0x3c>)
 8002dbe:	1b64      	subs	r4, r4, r5
 8002dc0:	10a4      	asrs	r4, r4, #2
 8002dc2:	2600      	movs	r6, #0
 8002dc4:	42a6      	cmp	r6, r4
 8002dc6:	d109      	bne.n	8002ddc <__libc_init_array+0x24>
 8002dc8:	4d0b      	ldr	r5, [pc, #44]	; (8002df8 <__libc_init_array+0x40>)
 8002dca:	4c0c      	ldr	r4, [pc, #48]	; (8002dfc <__libc_init_array+0x44>)
 8002dcc:	f002 feb6 	bl	8005b3c <_init>
 8002dd0:	1b64      	subs	r4, r4, r5
 8002dd2:	10a4      	asrs	r4, r4, #2
 8002dd4:	2600      	movs	r6, #0
 8002dd6:	42a6      	cmp	r6, r4
 8002dd8:	d105      	bne.n	8002de6 <__libc_init_array+0x2e>
 8002dda:	bd70      	pop	{r4, r5, r6, pc}
 8002ddc:	f855 3b04 	ldr.w	r3, [r5], #4
 8002de0:	4798      	blx	r3
 8002de2:	3601      	adds	r6, #1
 8002de4:	e7ee      	b.n	8002dc4 <__libc_init_array+0xc>
 8002de6:	f855 3b04 	ldr.w	r3, [r5], #4
 8002dea:	4798      	blx	r3
 8002dec:	3601      	adds	r6, #1
 8002dee:	e7f2      	b.n	8002dd6 <__libc_init_array+0x1e>
 8002df0:	08005fbc 	.word	0x08005fbc
 8002df4:	08005fbc 	.word	0x08005fbc
 8002df8:	08005fbc 	.word	0x08005fbc
 8002dfc:	08005fc0 	.word	0x08005fc0

08002e00 <memset>:
 8002e00:	4402      	add	r2, r0
 8002e02:	4603      	mov	r3, r0
 8002e04:	4293      	cmp	r3, r2
 8002e06:	d100      	bne.n	8002e0a <memset+0xa>
 8002e08:	4770      	bx	lr
 8002e0a:	f803 1b01 	strb.w	r1, [r3], #1
 8002e0e:	e7f9      	b.n	8002e04 <memset+0x4>

08002e10 <__cvt>:
 8002e10:	e92d 47ff 	stmdb	sp!, {r0, r1, r2, r3, r4, r5, r6, r7, r8, r9, sl, lr}
 8002e14:	ec55 4b10 	vmov	r4, r5, d0
 8002e18:	2d00      	cmp	r5, #0
 8002e1a:	460e      	mov	r6, r1
 8002e1c:	4619      	mov	r1, r3
 8002e1e:	462b      	mov	r3, r5
 8002e20:	bfbb      	ittet	lt
 8002e22:	f105 4300 	addlt.w	r3, r5, #2147483648	; 0x80000000
 8002e26:	461d      	movlt	r5, r3
 8002e28:	2300      	movge	r3, #0
 8002e2a:	232d      	movlt	r3, #45	; 0x2d
 8002e2c:	700b      	strb	r3, [r1, #0]
 8002e2e:	9b0d      	ldr	r3, [sp, #52]	; 0x34
 8002e30:	f8dd a030 	ldr.w	sl, [sp, #48]	; 0x30
 8002e34:	4691      	mov	r9, r2
 8002e36:	f023 0820 	bic.w	r8, r3, #32
 8002e3a:	bfbc      	itt	lt
 8002e3c:	4622      	movlt	r2, r4
 8002e3e:	4614      	movlt	r4, r2
 8002e40:	f1b8 0f46 	cmp.w	r8, #70	; 0x46
 8002e44:	d005      	beq.n	8002e52 <__cvt+0x42>
 8002e46:	f1b8 0f45 	cmp.w	r8, #69	; 0x45
 8002e4a:	d100      	bne.n	8002e4e <__cvt+0x3e>
 8002e4c:	3601      	adds	r6, #1
 8002e4e:	2102      	movs	r1, #2
 8002e50:	e000      	b.n	8002e54 <__cvt+0x44>
 8002e52:	2103      	movs	r1, #3
 8002e54:	ab03      	add	r3, sp, #12
 8002e56:	9301      	str	r3, [sp, #4]
 8002e58:	ab02      	add	r3, sp, #8
 8002e5a:	9300      	str	r3, [sp, #0]
 8002e5c:	ec45 4b10 	vmov	d0, r4, r5
 8002e60:	4653      	mov	r3, sl
 8002e62:	4632      	mov	r2, r6
 8002e64:	f000 fcec 	bl	8003840 <_dtoa_r>
 8002e68:	f1b8 0f47 	cmp.w	r8, #71	; 0x47
 8002e6c:	4607      	mov	r7, r0
 8002e6e:	d102      	bne.n	8002e76 <__cvt+0x66>
 8002e70:	f019 0f01 	tst.w	r9, #1
 8002e74:	d022      	beq.n	8002ebc <__cvt+0xac>
 8002e76:	f1b8 0f46 	cmp.w	r8, #70	; 0x46
 8002e7a:	eb07 0906 	add.w	r9, r7, r6
 8002e7e:	d110      	bne.n	8002ea2 <__cvt+0x92>
 8002e80:	783b      	ldrb	r3, [r7, #0]
 8002e82:	2b30      	cmp	r3, #48	; 0x30
 8002e84:	d10a      	bne.n	8002e9c <__cvt+0x8c>
 8002e86:	2200      	movs	r2, #0
 8002e88:	2300      	movs	r3, #0
 8002e8a:	4620      	mov	r0, r4
 8002e8c:	4629      	mov	r1, r5
 8002e8e:	f7fd fe1b 	bl	8000ac8 <__aeabi_dcmpeq>
 8002e92:	b918      	cbnz	r0, 8002e9c <__cvt+0x8c>
 8002e94:	f1c6 0601 	rsb	r6, r6, #1
 8002e98:	f8ca 6000 	str.w	r6, [sl]
 8002e9c:	f8da 3000 	ldr.w	r3, [sl]
 8002ea0:	4499      	add	r9, r3
 8002ea2:	2200      	movs	r2, #0
 8002ea4:	2300      	movs	r3, #0
 8002ea6:	4620      	mov	r0, r4
 8002ea8:	4629      	mov	r1, r5
 8002eaa:	f7fd fe0d 	bl	8000ac8 <__aeabi_dcmpeq>
 8002eae:	b108      	cbz	r0, 8002eb4 <__cvt+0xa4>
 8002eb0:	f8cd 900c 	str.w	r9, [sp, #12]
 8002eb4:	2230      	movs	r2, #48	; 0x30
 8002eb6:	9b03      	ldr	r3, [sp, #12]
 8002eb8:	454b      	cmp	r3, r9
 8002eba:	d307      	bcc.n	8002ecc <__cvt+0xbc>
 8002ebc:	9b03      	ldr	r3, [sp, #12]
 8002ebe:	9a0e      	ldr	r2, [sp, #56]	; 0x38
 8002ec0:	1bdb      	subs	r3, r3, r7
 8002ec2:	4638      	mov	r0, r7
 8002ec4:	6013      	str	r3, [r2, #0]
 8002ec6:	b004      	add	sp, #16
 8002ec8:	e8bd 87f0 	ldmia.w	sp!, {r4, r5, r6, r7, r8, r9, sl, pc}
 8002ecc:	1c59      	adds	r1, r3, #1
 8002ece:	9103      	str	r1, [sp, #12]
 8002ed0:	701a      	strb	r2, [r3, #0]
 8002ed2:	e7f0      	b.n	8002eb6 <__cvt+0xa6>

08002ed4 <__exponent>:
 8002ed4:	b5f7      	push	{r0, r1, r2, r4, r5, r6, r7, lr}
 8002ed6:	4603      	mov	r3, r0
 8002ed8:	2900      	cmp	r1, #0
 8002eda:	bfb8      	it	lt
 8002edc:	4249      	neglt	r1, r1
 8002ede:	f803 2b02 	strb.w	r2, [r3], #2
 8002ee2:	bfb4      	ite	lt
 8002ee4:	222d      	movlt	r2, #45	; 0x2d
 8002ee6:	222b      	movge	r2, #43	; 0x2b
 8002ee8:	2909      	cmp	r1, #9
 8002eea:	7042      	strb	r2, [r0, #1]
 8002eec:	dd2a      	ble.n	8002f44 <__exponent+0x70>
 8002eee:	f10d 0407 	add.w	r4, sp, #7
 8002ef2:	46a4      	mov	ip, r4
 8002ef4:	270a      	movs	r7, #10
 8002ef6:	46a6      	mov	lr, r4
 8002ef8:	460a      	mov	r2, r1
 8002efa:	fb91 f6f7 	sdiv	r6, r1, r7
 8002efe:	fb07 1516 	mls	r5, r7, r6, r1
 8002f02:	3530      	adds	r5, #48	; 0x30
 8002f04:	2a63      	cmp	r2, #99	; 0x63
 8002f06:	f104 34ff 	add.w	r4, r4, #4294967295
 8002f0a:	f80e 5c01 	strb.w	r5, [lr, #-1]
 8002f0e:	4631      	mov	r1, r6
 8002f10:	dcf1      	bgt.n	8002ef6 <__exponent+0x22>
 8002f12:	3130      	adds	r1, #48	; 0x30
 8002f14:	f1ae 0502 	sub.w	r5, lr, #2
 8002f18:	f804 1c01 	strb.w	r1, [r4, #-1]
 8002f1c:	1c44      	adds	r4, r0, #1
 8002f1e:	4629      	mov	r1, r5
 8002f20:	4561      	cmp	r1, ip
 8002f22:	d30a      	bcc.n	8002f3a <__exponent+0x66>
 8002f24:	f10d 0209 	add.w	r2, sp, #9
 8002f28:	eba2 020e 	sub.w	r2, r2, lr
 8002f2c:	4565      	cmp	r5, ip
 8002f2e:	bf88      	it	hi
 8002f30:	2200      	movhi	r2, #0
 8002f32:	4413      	add	r3, r2
 8002f34:	1a18      	subs	r0, r3, r0
 8002f36:	b003      	add	sp, #12
 8002f38:	bdf0      	pop	{r4, r5, r6, r7, pc}
 8002f3a:	f811 2b01 	ldrb.w	r2, [r1], #1
 8002f3e:	f804 2f01 	strb.w	r2, [r4, #1]!
 8002f42:	e7ed      	b.n	8002f20 <__exponent+0x4c>
 8002f44:	2330      	movs	r3, #48	; 0x30
 8002f46:	3130      	adds	r1, #48	; 0x30
 8002f48:	7083      	strb	r3, [r0, #2]
 8002f4a:	70c1      	strb	r1, [r0, #3]
 8002f4c:	1d03      	adds	r3, r0, #4
 8002f4e:	e7f1      	b.n	8002f34 <__exponent+0x60>

08002f50 <_printf_float>:
 8002f50:	e92d 4ff0 	stmdb	sp!, {r4, r5, r6, r7, r8, r9, sl, fp, lr}
 8002f54:	ed2d 8b02 	vpush	{d8}
 8002f58:	b08d      	sub	sp, #52	; 0x34
 8002f5a:	460c      	mov	r4, r1
 8002f5c:	f8dd 8060 	ldr.w	r8, [sp, #96]	; 0x60
 8002f60:	4616      	mov	r6, r2
 8002f62:	461f      	mov	r7, r3
 8002f64:	4605      	mov	r5, r0
 8002f66:	f001 fa57 	bl	8004418 <_localeconv_r>
 8002f6a:	f8d0 a000 	ldr.w	sl, [r0]
 8002f6e:	4650      	mov	r0, sl
 8002f70:	f7fd f92e 	bl	80001d0 <strlen>
 8002f74:	2300      	movs	r3, #0
 8002f76:	930a      	str	r3, [sp, #40]	; 0x28
 8002f78:	6823      	ldr	r3, [r4, #0]
 8002f7a:	9305      	str	r3, [sp, #20]
 8002f7c:	f8d8 3000 	ldr.w	r3, [r8]
 8002f80:	f894 b018 	ldrb.w	fp, [r4, #24]
 8002f84:	3307      	adds	r3, #7
 8002f86:	f023 0307 	bic.w	r3, r3, #7
 8002f8a:	f103 0208 	add.w	r2, r3, #8
 8002f8e:	f8c8 2000 	str.w	r2, [r8]
 8002f92:	e9d3 2300 	ldrd	r2, r3, [r3]
 8002f96:	e9c4 2312 	strd	r2, r3, [r4, #72]	; 0x48
 8002f9a:	e9d4 8912 	ldrd	r8, r9, [r4, #72]	; 0x48
 8002f9e:	f029 4300 	bic.w	r3, r9, #2147483648	; 0x80000000
 8002fa2:	9307      	str	r3, [sp, #28]
 8002fa4:	f8cd 8018 	str.w	r8, [sp, #24]
 8002fa8:	ee08 0a10 	vmov	s16, r0
 8002fac:	4b9f      	ldr	r3, [pc, #636]	; (800322c <_printf_float+0x2dc>)
 8002fae:	e9dd 0106 	ldrd	r0, r1, [sp, #24]
 8002fb2:	f04f 32ff 	mov.w	r2, #4294967295
 8002fb6:	f7fd fdb9 	bl	8000b2c <__aeabi_dcmpun>
 8002fba:	bb88      	cbnz	r0, 8003020 <_printf_float+0xd0>
 8002fbc:	e9dd 0106 	ldrd	r0, r1, [sp, #24]
 8002fc0:	4b9a      	ldr	r3, [pc, #616]	; (800322c <_printf_float+0x2dc>)
 8002fc2:	f04f 32ff 	mov.w	r2, #4294967295
 8002fc6:	f7fd fd93 	bl	8000af0 <__aeabi_dcmple>
 8002fca:	bb48      	cbnz	r0, 8003020 <_printf_float+0xd0>
 8002fcc:	2200      	movs	r2, #0
 8002fce:	2300      	movs	r3, #0
 8002fd0:	4640      	mov	r0, r8
 8002fd2:	4649      	mov	r1, r9
 8002fd4:	f7fd fd82 	bl	8000adc <__aeabi_dcmplt>
 8002fd8:	b110      	cbz	r0, 8002fe0 <_printf_float+0x90>
 8002fda:	232d      	movs	r3, #45	; 0x2d
 8002fdc:	f884 3043 	strb.w	r3, [r4, #67]	; 0x43
 8002fe0:	4b93      	ldr	r3, [pc, #588]	; (8003230 <_printf_float+0x2e0>)
 8002fe2:	4894      	ldr	r0, [pc, #592]	; (8003234 <_printf_float+0x2e4>)
 8002fe4:	f1bb 0f47 	cmp.w	fp, #71	; 0x47
 8002fe8:	bf94      	ite	ls
 8002fea:	4698      	movls	r8, r3
 8002fec:	4680      	movhi	r8, r0
 8002fee:	2303      	movs	r3, #3
 8002ff0:	6123      	str	r3, [r4, #16]
 8002ff2:	9b05      	ldr	r3, [sp, #20]
 8002ff4:	f023 0204 	bic.w	r2, r3, #4
 8002ff8:	6022      	str	r2, [r4, #0]
 8002ffa:	f04f 0900 	mov.w	r9, #0
 8002ffe:	9700      	str	r7, [sp, #0]
 8003000:	4633      	mov	r3, r6
 8003002:	aa0b      	add	r2, sp, #44	; 0x2c
 8003004:	4621      	mov	r1, r4
 8003006:	4628      	mov	r0, r5
 8003008:	f000 f9d8 	bl	80033bc <_printf_common>
 800300c:	3001      	adds	r0, #1
 800300e:	f040 8090 	bne.w	8003132 <_printf_float+0x1e2>
 8003012:	f04f 30ff 	mov.w	r0, #4294967295
 8003016:	b00d      	add	sp, #52	; 0x34
 8003018:	ecbd 8b02 	vpop	{d8}
 800301c:	e8bd 8ff0 	ldmia.w	sp!, {r4, r5, r6, r7, r8, r9, sl, fp, pc}
 8003020:	4642      	mov	r2, r8
 8003022:	464b      	mov	r3, r9
 8003024:	4640      	mov	r0, r8
 8003026:	4649      	mov	r1, r9
 8003028:	f7fd fd80 	bl	8000b2c <__aeabi_dcmpun>
 800302c:	b140      	cbz	r0, 8003040 <_printf_float+0xf0>
 800302e:	464b      	mov	r3, r9
 8003030:	2b00      	cmp	r3, #0
 8003032:	bfbc      	itt	lt
 8003034:	232d      	movlt	r3, #45	; 0x2d
 8003036:	f884 3043 	strblt.w	r3, [r4, #67]	; 0x43
 800303a:	487f      	ldr	r0, [pc, #508]	; (8003238 <_printf_float+0x2e8>)
 800303c:	4b7f      	ldr	r3, [pc, #508]	; (800323c <_printf_float+0x2ec>)
 800303e:	e7d1      	b.n	8002fe4 <_printf_float+0x94>
 8003040:	6863      	ldr	r3, [r4, #4]
 8003042:	f00b 02df 	and.w	r2, fp, #223	; 0xdf
 8003046:	9206      	str	r2, [sp, #24]
 8003048:	1c5a      	adds	r2, r3, #1
 800304a:	d13f      	bne.n	80030cc <_printf_float+0x17c>
 800304c:	2306      	movs	r3, #6
 800304e:	6063      	str	r3, [r4, #4]
 8003050:	9b05      	ldr	r3, [sp, #20]
 8003052:	6861      	ldr	r1, [r4, #4]
 8003054:	f443 6280 	orr.w	r2, r3, #1024	; 0x400
 8003058:	2300      	movs	r3, #0
 800305a:	9303      	str	r3, [sp, #12]
 800305c:	ab0a      	add	r3, sp, #40	; 0x28
 800305e:	e9cd b301 	strd	fp, r3, [sp, #4]
 8003062:	ab09      	add	r3, sp, #36	; 0x24
 8003064:	ec49 8b10 	vmov	d0, r8, r9
 8003068:	9300      	str	r3, [sp, #0]
 800306a:	6022      	str	r2, [r4, #0]
 800306c:	f10d 0323 	add.w	r3, sp, #35	; 0x23
 8003070:	4628      	mov	r0, r5
 8003072:	f7ff fecd 	bl	8002e10 <__cvt>
 8003076:	9b06      	ldr	r3, [sp, #24]
 8003078:	9909      	ldr	r1, [sp, #36]	; 0x24
 800307a:	2b47      	cmp	r3, #71	; 0x47
 800307c:	4680      	mov	r8, r0
 800307e:	d108      	bne.n	8003092 <_printf_float+0x142>
 8003080:	1cc8      	adds	r0, r1, #3
 8003082:	db02      	blt.n	800308a <_printf_float+0x13a>
 8003084:	6863      	ldr	r3, [r4, #4]
 8003086:	4299      	cmp	r1, r3
 8003088:	dd41      	ble.n	800310e <_printf_float+0x1be>
 800308a:	f1ab 0b02 	sub.w	fp, fp, #2
 800308e:	fa5f fb8b 	uxtb.w	fp, fp
 8003092:	f1bb 0f65 	cmp.w	fp, #101	; 0x65
 8003096:	d820      	bhi.n	80030da <_printf_float+0x18a>
 8003098:	3901      	subs	r1, #1
 800309a:	465a      	mov	r2, fp
 800309c:	f104 0050 	add.w	r0, r4, #80	; 0x50
 80030a0:	9109      	str	r1, [sp, #36]	; 0x24
 80030a2:	f7ff ff17 	bl	8002ed4 <__exponent>
 80030a6:	9a0a      	ldr	r2, [sp, #40]	; 0x28
 80030a8:	1813      	adds	r3, r2, r0
 80030aa:	2a01      	cmp	r2, #1
 80030ac:	4681      	mov	r9, r0
 80030ae:	6123      	str	r3, [r4, #16]
 80030b0:	dc02      	bgt.n	80030b8 <_printf_float+0x168>
 80030b2:	6822      	ldr	r2, [r4, #0]
 80030b4:	07d2      	lsls	r2, r2, #31
 80030b6:	d501      	bpl.n	80030bc <_printf_float+0x16c>
 80030b8:	3301      	adds	r3, #1
 80030ba:	6123      	str	r3, [r4, #16]
 80030bc:	f89d 3023 	ldrb.w	r3, [sp, #35]	; 0x23
 80030c0:	2b00      	cmp	r3, #0
 80030c2:	d09c      	beq.n	8002ffe <_printf_float+0xae>
 80030c4:	232d      	movs	r3, #45	; 0x2d
 80030c6:	f884 3043 	strb.w	r3, [r4, #67]	; 0x43
 80030ca:	e798      	b.n	8002ffe <_printf_float+0xae>
 80030cc:	9a06      	ldr	r2, [sp, #24]
 80030ce:	2a47      	cmp	r2, #71	; 0x47
 80030d0:	d1be      	bne.n	8003050 <_printf_float+0x100>
 80030d2:	2b00      	cmp	r3, #0
 80030d4:	d1bc      	bne.n	8003050 <_printf_float+0x100>
 80030d6:	2301      	movs	r3, #1
 80030d8:	e7b9      	b.n	800304e <_printf_float+0xfe>
 80030da:	f1bb 0f66 	cmp.w	fp, #102	; 0x66
 80030de:	d118      	bne.n	8003112 <_printf_float+0x1c2>
 80030e0:	2900      	cmp	r1, #0
 80030e2:	6863      	ldr	r3, [r4, #4]
 80030e4:	dd0b      	ble.n	80030fe <_printf_float+0x1ae>
 80030e6:	6121      	str	r1, [r4, #16]
 80030e8:	b913      	cbnz	r3, 80030f0 <_printf_float+0x1a0>
 80030ea:	6822      	ldr	r2, [r4, #0]
 80030ec:	07d0      	lsls	r0, r2, #31
 80030ee:	d502      	bpl.n	80030f6 <_printf_float+0x1a6>
 80030f0:	3301      	adds	r3, #1
 80030f2:	440b      	add	r3, r1
 80030f4:	6123      	str	r3, [r4, #16]
 80030f6:	65a1      	str	r1, [r4, #88]	; 0x58
 80030f8:	f04f 0900 	mov.w	r9, #0
 80030fc:	e7de      	b.n	80030bc <_printf_float+0x16c>
 80030fe:	b913      	cbnz	r3, 8003106 <_printf_float+0x1b6>
 8003100:	6822      	ldr	r2, [r4, #0]
 8003102:	07d2      	lsls	r2, r2, #31
 8003104:	d501      	bpl.n	800310a <_printf_float+0x1ba>
 8003106:	3302      	adds	r3, #2
 8003108:	e7f4      	b.n	80030f4 <_printf_float+0x1a4>
 800310a:	2301      	movs	r3, #1
 800310c:	e7f2      	b.n	80030f4 <_printf_float+0x1a4>
 800310e:	f04f 0b67 	mov.w	fp, #103	; 0x67
 8003112:	9b0a      	ldr	r3, [sp, #40]	; 0x28
 8003114:	4299      	cmp	r1, r3
 8003116:	db05      	blt.n	8003124 <_printf_float+0x1d4>
 8003118:	6823      	ldr	r3, [r4, #0]
 800311a:	6121      	str	r1, [r4, #16]
 800311c:	07d8      	lsls	r0, r3, #31
 800311e:	d5ea      	bpl.n	80030f6 <_printf_float+0x1a6>
 8003120:	1c4b      	adds	r3, r1, #1
 8003122:	e7e7      	b.n	80030f4 <_printf_float+0x1a4>
 8003124:	2900      	cmp	r1, #0
 8003126:	bfd4      	ite	le
 8003128:	f1c1 0202 	rsble	r2, r1, #2
 800312c:	2201      	movgt	r2, #1
 800312e:	4413      	add	r3, r2
 8003130:	e7e0      	b.n	80030f4 <_printf_float+0x1a4>
 8003132:	6823      	ldr	r3, [r4, #0]
 8003134:	055a      	lsls	r2, r3, #21
 8003136:	d407      	bmi.n	8003148 <_printf_float+0x1f8>
 8003138:	6923      	ldr	r3, [r4, #16]
 800313a:	4642      	mov	r2, r8
 800313c:	4631      	mov	r1, r6
 800313e:	4628      	mov	r0, r5
 8003140:	47b8      	blx	r7
 8003142:	3001      	adds	r0, #1
 8003144:	d12c      	bne.n	80031a0 <_printf_float+0x250>
 8003146:	e764      	b.n	8003012 <_printf_float+0xc2>
 8003148:	f1bb 0f65 	cmp.w	fp, #101	; 0x65
 800314c:	f240 80e0 	bls.w	8003310 <_printf_float+0x3c0>
 8003150:	e9d4 0112 	ldrd	r0, r1, [r4, #72]	; 0x48
 8003154:	2200      	movs	r2, #0
 8003156:	2300      	movs	r3, #0
 8003158:	f7fd fcb6 	bl	8000ac8 <__aeabi_dcmpeq>
 800315c:	2800      	cmp	r0, #0
 800315e:	d034      	beq.n	80031ca <_printf_float+0x27a>
 8003160:	4a37      	ldr	r2, [pc, #220]	; (8003240 <_printf_float+0x2f0>)
 8003162:	2301      	movs	r3, #1
 8003164:	4631      	mov	r1, r6
 8003166:	4628      	mov	r0, r5
 8003168:	47b8      	blx	r7
 800316a:	3001      	adds	r0, #1
 800316c:	f43f af51 	beq.w	8003012 <_printf_float+0xc2>
 8003170:	e9dd 2309 	ldrd	r2, r3, [sp, #36]	; 0x24
 8003174:	429a      	cmp	r2, r3
 8003176:	db02      	blt.n	800317e <_printf_float+0x22e>
 8003178:	6823      	ldr	r3, [r4, #0]
 800317a:	07d8      	lsls	r0, r3, #31
 800317c:	d510      	bpl.n	80031a0 <_printf_float+0x250>
 800317e:	ee18 3a10 	vmov	r3, s16
 8003182:	4652      	mov	r2, sl
 8003184:	4631      	mov	r1, r6
 8003186:	4628      	mov	r0, r5
 8003188:	47b8      	blx	r7
 800318a:	3001      	adds	r0, #1
 800318c:	f43f af41 	beq.w	8003012 <_printf_float+0xc2>
 8003190:	f04f 0800 	mov.w	r8, #0
 8003194:	f104 091a 	add.w	r9, r4, #26
 8003198:	9b0a      	ldr	r3, [sp, #40]	; 0x28
 800319a:	3b01      	subs	r3, #1
 800319c:	4543      	cmp	r3, r8
 800319e:	dc09      	bgt.n	80031b4 <_printf_float+0x264>
 80031a0:	6823      	ldr	r3, [r4, #0]
 80031a2:	079b      	lsls	r3, r3, #30
 80031a4:	f100 8105 	bmi.w	80033b2 <_printf_float+0x462>
 80031a8:	68e0      	ldr	r0, [r4, #12]
 80031aa:	9b0b      	ldr	r3, [sp, #44]	; 0x2c
 80031ac:	4298      	cmp	r0, r3
 80031ae:	bfb8      	it	lt
 80031b0:	4618      	movlt	r0, r3
 80031b2:	e730      	b.n	8003016 <_printf_float+0xc6>
 80031b4:	2301      	movs	r3, #1
 80031b6:	464a      	mov	r2, r9
 80031b8:	4631      	mov	r1, r6
 80031ba:	4628      	mov	r0, r5
 80031bc:	47b8      	blx	r7
 80031be:	3001      	adds	r0, #1
 80031c0:	f43f af27 	beq.w	8003012 <_printf_float+0xc2>
 80031c4:	f108 0801 	add.w	r8, r8, #1
 80031c8:	e7e6      	b.n	8003198 <_printf_float+0x248>
 80031ca:	9b09      	ldr	r3, [sp, #36]	; 0x24
 80031cc:	2b00      	cmp	r3, #0
 80031ce:	dc39      	bgt.n	8003244 <_printf_float+0x2f4>
 80031d0:	4a1b      	ldr	r2, [pc, #108]	; (8003240 <_printf_float+0x2f0>)
 80031d2:	2301      	movs	r3, #1
 80031d4:	4631      	mov	r1, r6
 80031d6:	4628      	mov	r0, r5
 80031d8:	47b8      	blx	r7
 80031da:	3001      	adds	r0, #1
 80031dc:	f43f af19 	beq.w	8003012 <_printf_float+0xc2>
 80031e0:	e9dd 2309 	ldrd	r2, r3, [sp, #36]	; 0x24
 80031e4:	4313      	orrs	r3, r2
 80031e6:	d102      	bne.n	80031ee <_printf_float+0x29e>
 80031e8:	6823      	ldr	r3, [r4, #0]
 80031ea:	07d9      	lsls	r1, r3, #31
 80031ec:	d5d8      	bpl.n	80031a0 <_printf_float+0x250>
 80031ee:	ee18 3a10 	vmov	r3, s16
 80031f2:	4652      	mov	r2, sl
 80031f4:	4631      	mov	r1, r6
 80031f6:	4628      	mov	r0, r5
 80031f8:	47b8      	blx	r7
 80031fa:	3001      	adds	r0, #1
 80031fc:	f43f af09 	beq.w	8003012 <_printf_float+0xc2>
 8003200:	f04f 0900 	mov.w	r9, #0
 8003204:	f104 0a1a 	add.w	sl, r4, #26
 8003208:	9b09      	ldr	r3, [sp, #36]	; 0x24
 800320a:	425b      	negs	r3, r3
 800320c:	454b      	cmp	r3, r9
 800320e:	dc01      	bgt.n	8003214 <_printf_float+0x2c4>
 8003210:	9b0a      	ldr	r3, [sp, #40]	; 0x28
 8003212:	e792      	b.n	800313a <_printf_float+0x1ea>
 8003214:	2301      	movs	r3, #1
 8003216:	4652      	mov	r2, sl
 8003218:	4631      	mov	r1, r6
 800321a:	4628      	mov	r0, r5
 800321c:	47b8      	blx	r7
 800321e:	3001      	adds	r0, #1
 8003220:	f43f aef7 	beq.w	8003012 <_printf_float+0xc2>
 8003224:	f109 0901 	add.w	r9, r9, #1
 8003228:	e7ee      	b.n	8003208 <_printf_float+0x2b8>
 800322a:	bf00      	nop
 800322c:	7fefffff 	.word	0x7fefffff
 8003230:	08005bd4 	.word	0x08005bd4
 8003234:	08005bd8 	.word	0x08005bd8
 8003238:	08005be0 	.word	0x08005be0
 800323c:	08005bdc 	.word	0x08005bdc
 8003240:	08005be4 	.word	0x08005be4
 8003244:	9a0a      	ldr	r2, [sp, #40]	; 0x28
 8003246:	6da3      	ldr	r3, [r4, #88]	; 0x58
 8003248:	429a      	cmp	r2, r3
 800324a:	bfa8      	it	ge
 800324c:	461a      	movge	r2, r3
 800324e:	2a00      	cmp	r2, #0
 8003250:	4691      	mov	r9, r2
 8003252:	dc37      	bgt.n	80032c4 <_printf_float+0x374>
 8003254:	f04f 0b00 	mov.w	fp, #0
 8003258:	ea29 79e9 	bic.w	r9, r9, r9, asr #31
 800325c:	f104 021a 	add.w	r2, r4, #26
 8003260:	6da3      	ldr	r3, [r4, #88]	; 0x58
 8003262:	9305      	str	r3, [sp, #20]
 8003264:	eba3 0309 	sub.w	r3, r3, r9
 8003268:	455b      	cmp	r3, fp
 800326a:	dc33      	bgt.n	80032d4 <_printf_float+0x384>
 800326c:	e9dd 2309 	ldrd	r2, r3, [sp, #36]	; 0x24
 8003270:	429a      	cmp	r2, r3
 8003272:	db3b      	blt.n	80032ec <_printf_float+0x39c>
 8003274:	6823      	ldr	r3, [r4, #0]
 8003276:	07da      	lsls	r2, r3, #31
 8003278:	d438      	bmi.n	80032ec <_printf_float+0x39c>
 800327a:	9a0a      	ldr	r2, [sp, #40]	; 0x28
 800327c:	9b05      	ldr	r3, [sp, #20]
 800327e:	9909      	ldr	r1, [sp, #36]	; 0x24
 8003280:	1ad3      	subs	r3, r2, r3
 8003282:	eba2 0901 	sub.w	r9, r2, r1
 8003286:	4599      	cmp	r9, r3
 8003288:	bfa8      	it	ge
 800328a:	4699      	movge	r9, r3
 800328c:	f1b9 0f00 	cmp.w	r9, #0
 8003290:	dc35      	bgt.n	80032fe <_printf_float+0x3ae>
 8003292:	f04f 0800 	mov.w	r8, #0
 8003296:	ea29 79e9 	bic.w	r9, r9, r9, asr #31
 800329a:	f104 0a1a 	add.w	sl, r4, #26
 800329e:	e9dd 2309 	ldrd	r2, r3, [sp, #36]	; 0x24
 80032a2:	1a9b      	subs	r3, r3, r2
 80032a4:	eba3 0309 	sub.w	r3, r3, r9
 80032a8:	4543      	cmp	r3, r8
 80032aa:	f77f af79 	ble.w	80031a0 <_printf_float+0x250>
 80032ae:	2301      	movs	r3, #1
 80032b0:	4652      	mov	r2, sl
 80032b2:	4631      	mov	r1, r6
 80032b4:	4628      	mov	r0, r5
 80032b6:	47b8      	blx	r7
 80032b8:	3001      	adds	r0, #1
 80032ba:	f43f aeaa 	beq.w	8003012 <_printf_float+0xc2>
 80032be:	f108 0801 	add.w	r8, r8, #1
 80032c2:	e7ec      	b.n	800329e <_printf_float+0x34e>
 80032c4:	4613      	mov	r3, r2
 80032c6:	4631      	mov	r1, r6
 80032c8:	4642      	mov	r2, r8
 80032ca:	4628      	mov	r0, r5
 80032cc:	47b8      	blx	r7
 80032ce:	3001      	adds	r0, #1
 80032d0:	d1c0      	bne.n	8003254 <_printf_float+0x304>
 80032d2:	e69e      	b.n	8003012 <_printf_float+0xc2>
 80032d4:	2301      	movs	r3, #1
 80032d6:	4631      	mov	r1, r6
 80032d8:	4628      	mov	r0, r5
 80032da:	9205      	str	r2, [sp, #20]
 80032dc:	47b8      	blx	r7
 80032de:	3001      	adds	r0, #1
 80032e0:	f43f ae97 	beq.w	8003012 <_printf_float+0xc2>
 80032e4:	9a05      	ldr	r2, [sp, #20]
 80032e6:	f10b 0b01 	add.w	fp, fp, #1
 80032ea:	e7b9      	b.n	8003260 <_printf_float+0x310>
 80032ec:	ee18 3a10 	vmov	r3, s16
 80032f0:	4652      	mov	r2, sl
 80032f2:	4631      	mov	r1, r6
 80032f4:	4628      	mov	r0, r5
 80032f6:	47b8      	blx	r7
 80032f8:	3001      	adds	r0, #1
 80032fa:	d1be      	bne.n	800327a <_printf_float+0x32a>
 80032fc:	e689      	b.n	8003012 <_printf_float+0xc2>
 80032fe:	9a05      	ldr	r2, [sp, #20]
 8003300:	464b      	mov	r3, r9
 8003302:	4442      	add	r2, r8
 8003304:	4631      	mov	r1, r6
 8003306:	4628      	mov	r0, r5
 8003308:	47b8      	blx	r7
 800330a:	3001      	adds	r0, #1
 800330c:	d1c1      	bne.n	8003292 <_printf_float+0x342>
 800330e:	e680      	b.n	8003012 <_printf_float+0xc2>
 8003310:	9a0a      	ldr	r2, [sp, #40]	; 0x28
 8003312:	2a01      	cmp	r2, #1
 8003314:	dc01      	bgt.n	800331a <_printf_float+0x3ca>
 8003316:	07db      	lsls	r3, r3, #31
 8003318:	d538      	bpl.n	800338c <_printf_float+0x43c>
 800331a:	2301      	movs	r3, #1
 800331c:	4642      	mov	r2, r8
 800331e:	4631      	mov	r1, r6
 8003320:	4628      	mov	r0, r5
 8003322:	47b8      	blx	r7
 8003324:	3001      	adds	r0, #1
 8003326:	f43f ae74 	beq.w	8003012 <_printf_float+0xc2>
 800332a:	ee18 3a10 	vmov	r3, s16
 800332e:	4652      	mov	r2, sl
 8003330:	4631      	mov	r1, r6
 8003332:	4628      	mov	r0, r5
 8003334:	47b8      	blx	r7
 8003336:	3001      	adds	r0, #1
 8003338:	f43f ae6b 	beq.w	8003012 <_printf_float+0xc2>
 800333c:	e9d4 0112 	ldrd	r0, r1, [r4, #72]	; 0x48
 8003340:	2200      	movs	r2, #0
 8003342:	2300      	movs	r3, #0
 8003344:	f7fd fbc0 	bl	8000ac8 <__aeabi_dcmpeq>
 8003348:	b9d8      	cbnz	r0, 8003382 <_printf_float+0x432>
 800334a:	9b0a      	ldr	r3, [sp, #40]	; 0x28
 800334c:	f108 0201 	add.w	r2, r8, #1
 8003350:	3b01      	subs	r3, #1
 8003352:	4631      	mov	r1, r6
 8003354:	4628      	mov	r0, r5
 8003356:	47b8      	blx	r7
 8003358:	3001      	adds	r0, #1
 800335a:	d10e      	bne.n	800337a <_printf_float+0x42a>
 800335c:	e659      	b.n	8003012 <_printf_float+0xc2>
 800335e:	2301      	movs	r3, #1
 8003360:	4652      	mov	r2, sl
 8003362:	4631      	mov	r1, r6
 8003364:	4628      	mov	r0, r5
 8003366:	47b8      	blx	r7
 8003368:	3001      	adds	r0, #1
 800336a:	f43f ae52 	beq.w	8003012 <_printf_float+0xc2>
 800336e:	f108 0801 	add.w	r8, r8, #1
 8003372:	9b0a      	ldr	r3, [sp, #40]	; 0x28
 8003374:	3b01      	subs	r3, #1
 8003376:	4543      	cmp	r3, r8
 8003378:	dcf1      	bgt.n	800335e <_printf_float+0x40e>
 800337a:	464b      	mov	r3, r9
 800337c:	f104 0250 	add.w	r2, r4, #80	; 0x50
 8003380:	e6dc      	b.n	800313c <_printf_float+0x1ec>
 8003382:	f04f 0800 	mov.w	r8, #0
 8003386:	f104 0a1a 	add.w	sl, r4, #26
 800338a:	e7f2      	b.n	8003372 <_printf_float+0x422>
 800338c:	2301      	movs	r3, #1
 800338e:	4642      	mov	r2, r8
 8003390:	e7df      	b.n	8003352 <_printf_float+0x402>
 8003392:	2301      	movs	r3, #1
 8003394:	464a      	mov	r2, r9
 8003396:	4631      	mov	r1, r6
 8003398:	4628      	mov	r0, r5
 800339a:	47b8      	blx	r7
 800339c:	3001      	adds	r0, #1
 800339e:	f43f ae38 	beq.w	8003012 <_printf_float+0xc2>
 80033a2:	f108 0801 	add.w	r8, r8, #1
 80033a6:	68e3      	ldr	r3, [r4, #12]
 80033a8:	990b      	ldr	r1, [sp, #44]	; 0x2c
 80033aa:	1a5b      	subs	r3, r3, r1
 80033ac:	4543      	cmp	r3, r8
 80033ae:	dcf0      	bgt.n	8003392 <_printf_float+0x442>
 80033b0:	e6fa      	b.n	80031a8 <_printf_float+0x258>
 80033b2:	f04f 0800 	mov.w	r8, #0
 80033b6:	f104 0919 	add.w	r9, r4, #25
 80033ba:	e7f4      	b.n	80033a6 <_printf_float+0x456>

080033bc <_printf_common>:
 80033bc:	e92d 47f0 	stmdb	sp!, {r4, r5, r6, r7, r8, r9, sl, lr}
 80033c0:	4616      	mov	r6, r2
 80033c2:	4699      	mov	r9, r3
 80033c4:	688a      	ldr	r2, [r1, #8]
 80033c6:	690b      	ldr	r3, [r1, #16]
 80033c8:	f8dd 8020 	ldr.w	r8, [sp, #32]
 80033cc:	4293      	cmp	r3, r2
 80033ce:	bfb8      	it	lt
 80033d0:	4613      	movlt	r3, r2
 80033d2:	6033      	str	r3, [r6, #0]
 80033d4:	f891 2043 	ldrb.w	r2, [r1, #67]	; 0x43
 80033d8:	4607      	mov	r7, r0
 80033da:	460c      	mov	r4, r1
 80033dc:	b10a      	cbz	r2, 80033e2 <_printf_common+0x26>
 80033de:	3301      	adds	r3, #1
 80033e0:	6033      	str	r3, [r6, #0]
 80033e2:	6823      	ldr	r3, [r4, #0]
 80033e4:	0699      	lsls	r1, r3, #26
 80033e6:	bf42      	ittt	mi
 80033e8:	6833      	ldrmi	r3, [r6, #0]
 80033ea:	3302      	addmi	r3, #2
 80033ec:	6033      	strmi	r3, [r6, #0]
 80033ee:	6825      	ldr	r5, [r4, #0]
 80033f0:	f015 0506 	ands.w	r5, r5, #6
 80033f4:	d106      	bne.n	8003404 <_printf_common+0x48>
 80033f6:	f104 0a19 	add.w	sl, r4, #25
 80033fa:	68e3      	ldr	r3, [r4, #12]
 80033fc:	6832      	ldr	r2, [r6, #0]
 80033fe:	1a9b      	subs	r3, r3, r2
 8003400:	42ab      	cmp	r3, r5
 8003402:	dc26      	bgt.n	8003452 <_printf_common+0x96>
 8003404:	f894 2043 	ldrb.w	r2, [r4, #67]	; 0x43
 8003408:	1e13      	subs	r3, r2, #0
 800340a:	6822      	ldr	r2, [r4, #0]
 800340c:	bf18      	it	ne
 800340e:	2301      	movne	r3, #1
 8003410:	0692      	lsls	r2, r2, #26
 8003412:	d42b      	bmi.n	800346c <_printf_common+0xb0>
 8003414:	f104 0243 	add.w	r2, r4, #67	; 0x43
 8003418:	4649      	mov	r1, r9
 800341a:	4638      	mov	r0, r7
 800341c:	47c0      	blx	r8
 800341e:	3001      	adds	r0, #1
 8003420:	d01e      	beq.n	8003460 <_printf_common+0xa4>
 8003422:	6823      	ldr	r3, [r4, #0]
 8003424:	68e5      	ldr	r5, [r4, #12]
 8003426:	6832      	ldr	r2, [r6, #0]
 8003428:	f003 0306 	and.w	r3, r3, #6
 800342c:	2b04      	cmp	r3, #4
 800342e:	bf08      	it	eq
 8003430:	1aad      	subeq	r5, r5, r2
 8003432:	68a3      	ldr	r3, [r4, #8]
 8003434:	6922      	ldr	r2, [r4, #16]
 8003436:	bf0c      	ite	eq
 8003438:	ea25 75e5 	biceq.w	r5, r5, r5, asr #31
 800343c:	2500      	movne	r5, #0
 800343e:	4293      	cmp	r3, r2
 8003440:	bfc4      	itt	gt
 8003442:	1a9b      	subgt	r3, r3, r2
 8003444:	18ed      	addgt	r5, r5, r3
 8003446:	2600      	movs	r6, #0
 8003448:	341a      	adds	r4, #26
 800344a:	42b5      	cmp	r5, r6
 800344c:	d11a      	bne.n	8003484 <_printf_common+0xc8>
 800344e:	2000      	movs	r0, #0
 8003450:	e008      	b.n	8003464 <_printf_common+0xa8>
 8003452:	2301      	movs	r3, #1
 8003454:	4652      	mov	r2, sl
 8003456:	4649      	mov	r1, r9
 8003458:	4638      	mov	r0, r7
 800345a:	47c0      	blx	r8
 800345c:	3001      	adds	r0, #1
 800345e:	d103      	bne.n	8003468 <_printf_common+0xac>
 8003460:	f04f 30ff 	mov.w	r0, #4294967295
 8003464:	e8bd 87f0 	ldmia.w	sp!, {r4, r5, r6, r7, r8, r9, sl, pc}
 8003468:	3501      	adds	r5, #1
 800346a:	e7c6      	b.n	80033fa <_printf_common+0x3e>
 800346c:	18e1      	adds	r1, r4, r3
 800346e:	1c5a      	adds	r2, r3, #1
 8003470:	2030      	movs	r0, #48	; 0x30
 8003472:	f881 0043 	strb.w	r0, [r1, #67]	; 0x43
 8003476:	4422      	add	r2, r4
 8003478:	f894 1045 	ldrb.w	r1, [r4, #69]	; 0x45
 800347c:	f882 1043 	strb.w	r1, [r2, #67]	; 0x43
 8003480:	3302      	adds	r3, #2
 8003482:	e7c7      	b.n	8003414 <_printf_common+0x58>
 8003484:	2301      	movs	r3, #1
 8003486:	4622      	mov	r2, r4
 8003488:	4649      	mov	r1, r9
 800348a:	4638      	mov	r0, r7
 800348c:	47c0      	blx	r8
 800348e:	3001      	adds	r0, #1
 8003490:	d0e6      	beq.n	8003460 <_printf_common+0xa4>
 8003492:	3601      	adds	r6, #1
 8003494:	e7d9      	b.n	800344a <_printf_common+0x8e>
	...

08003498 <_printf_i>:
 8003498:	e92d 47ff 	stmdb	sp!, {r0, r1, r2, r3, r4, r5, r6, r7, r8, r9, sl, lr}
 800349c:	460c      	mov	r4, r1
 800349e:	4691      	mov	r9, r2
 80034a0:	7e27      	ldrb	r7, [r4, #24]
 80034a2:	990c      	ldr	r1, [sp, #48]	; 0x30
 80034a4:	2f78      	cmp	r7, #120	; 0x78
 80034a6:	4680      	mov	r8, r0
 80034a8:	469a      	mov	sl, r3
 80034aa:	f104 0243 	add.w	r2, r4, #67	; 0x43
 80034ae:	d807      	bhi.n	80034c0 <_printf_i+0x28>
 80034b0:	2f62      	cmp	r7, #98	; 0x62
 80034b2:	d80a      	bhi.n	80034ca <_printf_i+0x32>
 80034b4:	2f00      	cmp	r7, #0
 80034b6:	f000 80d8 	beq.w	800366a <_printf_i+0x1d2>
 80034ba:	2f58      	cmp	r7, #88	; 0x58
 80034bc:	f000 80a3 	beq.w	8003606 <_printf_i+0x16e>
 80034c0:	f104 0642 	add.w	r6, r4, #66	; 0x42
 80034c4:	f884 7042 	strb.w	r7, [r4, #66]	; 0x42
 80034c8:	e03a      	b.n	8003540 <_printf_i+0xa8>
 80034ca:	f1a7 0363 	sub.w	r3, r7, #99	; 0x63
 80034ce:	2b15      	cmp	r3, #21
 80034d0:	d8f6      	bhi.n	80034c0 <_printf_i+0x28>
 80034d2:	a001      	add	r0, pc, #4	; (adr r0, 80034d8 <_printf_i+0x40>)
 80034d4:	f850 f023 	ldr.w	pc, [r0, r3, lsl #2]
 80034d8:	08003531 	.word	0x08003531
 80034dc:	08003545 	.word	0x08003545
 80034e0:	080034c1 	.word	0x080034c1
 80034e4:	080034c1 	.word	0x080034c1
 80034e8:	080034c1 	.word	0x080034c1
 80034ec:	080034c1 	.word	0x080034c1
 80034f0:	08003545 	.word	0x08003545
 80034f4:	080034c1 	.word	0x080034c1
 80034f8:	080034c1 	.word	0x080034c1
 80034fc:	080034c1 	.word	0x080034c1
 8003500:	080034c1 	.word	0x080034c1
 8003504:	08003651 	.word	0x08003651
 8003508:	08003575 	.word	0x08003575
 800350c:	08003633 	.word	0x08003633
 8003510:	080034c1 	.word	0x080034c1
 8003514:	080034c1 	.word	0x080034c1
 8003518:	08003673 	.word	0x08003673
 800351c:	080034c1 	.word	0x080034c1
 8003520:	08003575 	.word	0x08003575
 8003524:	080034c1 	.word	0x080034c1
 8003528:	080034c1 	.word	0x080034c1
 800352c:	0800363b 	.word	0x0800363b
 8003530:	680b      	ldr	r3, [r1, #0]
 8003532:	1d1a      	adds	r2, r3, #4
 8003534:	681b      	ldr	r3, [r3, #0]
 8003536:	600a      	str	r2, [r1, #0]
 8003538:	f104 0642 	add.w	r6, r4, #66	; 0x42
 800353c:	f884 3042 	strb.w	r3, [r4, #66]	; 0x42
 8003540:	2301      	movs	r3, #1
 8003542:	e0a3      	b.n	800368c <_printf_i+0x1f4>
 8003544:	6825      	ldr	r5, [r4, #0]
 8003546:	6808      	ldr	r0, [r1, #0]
 8003548:	062e      	lsls	r6, r5, #24
 800354a:	f100 0304 	add.w	r3, r0, #4
 800354e:	d50a      	bpl.n	8003566 <_printf_i+0xce>
 8003550:	6805      	ldr	r5, [r0, #0]
 8003552:	600b      	str	r3, [r1, #0]
 8003554:	2d00      	cmp	r5, #0
 8003556:	da03      	bge.n	8003560 <_printf_i+0xc8>
 8003558:	232d      	movs	r3, #45	; 0x2d
 800355a:	426d      	negs	r5, r5
 800355c:	f884 3043 	strb.w	r3, [r4, #67]	; 0x43
 8003560:	485e      	ldr	r0, [pc, #376]	; (80036dc <_printf_i+0x244>)
 8003562:	230a      	movs	r3, #10
 8003564:	e019      	b.n	800359a <_printf_i+0x102>
 8003566:	f015 0f40 	tst.w	r5, #64	; 0x40
 800356a:	6805      	ldr	r5, [r0, #0]
 800356c:	600b      	str	r3, [r1, #0]
 800356e:	bf18      	it	ne
 8003570:	b22d      	sxthne	r5, r5
 8003572:	e7ef      	b.n	8003554 <_printf_i+0xbc>
 8003574:	680b      	ldr	r3, [r1, #0]
 8003576:	6825      	ldr	r5, [r4, #0]
 8003578:	1d18      	adds	r0, r3, #4
 800357a:	6008      	str	r0, [r1, #0]
 800357c:	0628      	lsls	r0, r5, #24
 800357e:	d501      	bpl.n	8003584 <_printf_i+0xec>
 8003580:	681d      	ldr	r5, [r3, #0]
 8003582:	e002      	b.n	800358a <_printf_i+0xf2>
 8003584:	0669      	lsls	r1, r5, #25
 8003586:	d5fb      	bpl.n	8003580 <_printf_i+0xe8>
 8003588:	881d      	ldrh	r5, [r3, #0]
 800358a:	4854      	ldr	r0, [pc, #336]	; (80036dc <_printf_i+0x244>)
 800358c:	2f6f      	cmp	r7, #111	; 0x6f
 800358e:	bf0c      	ite	eq
 8003590:	2308      	moveq	r3, #8
 8003592:	230a      	movne	r3, #10
 8003594:	2100      	movs	r1, #0
 8003596:	f884 1043 	strb.w	r1, [r4, #67]	; 0x43
 800359a:	6866      	ldr	r6, [r4, #4]
 800359c:	60a6      	str	r6, [r4, #8]
 800359e:	2e00      	cmp	r6, #0
 80035a0:	bfa2      	ittt	ge
 80035a2:	6821      	ldrge	r1, [r4, #0]
 80035a4:	f021 0104 	bicge.w	r1, r1, #4
 80035a8:	6021      	strge	r1, [r4, #0]
 80035aa:	b90d      	cbnz	r5, 80035b0 <_printf_i+0x118>
 80035ac:	2e00      	cmp	r6, #0
 80035ae:	d04d      	beq.n	800364c <_printf_i+0x1b4>
 80035b0:	4616      	mov	r6, r2
 80035b2:	fbb5 f1f3 	udiv	r1, r5, r3
 80035b6:	fb03 5711 	mls	r7, r3, r1, r5
 80035ba:	5dc7      	ldrb	r7, [r0, r7]
 80035bc:	f806 7d01 	strb.w	r7, [r6, #-1]!
 80035c0:	462f      	mov	r7, r5
 80035c2:	42bb      	cmp	r3, r7
 80035c4:	460d      	mov	r5, r1
 80035c6:	d9f4      	bls.n	80035b2 <_printf_i+0x11a>
 80035c8:	2b08      	cmp	r3, #8
 80035ca:	d10b      	bne.n	80035e4 <_printf_i+0x14c>
 80035cc:	6823      	ldr	r3, [r4, #0]
 80035ce:	07df      	lsls	r7, r3, #31
 80035d0:	d508      	bpl.n	80035e4 <_printf_i+0x14c>
 80035d2:	6923      	ldr	r3, [r4, #16]
 80035d4:	6861      	ldr	r1, [r4, #4]
 80035d6:	4299      	cmp	r1, r3
 80035d8:	bfde      	ittt	le
 80035da:	2330      	movle	r3, #48	; 0x30
 80035dc:	f806 3c01 	strble.w	r3, [r6, #-1]
 80035e0:	f106 36ff 	addle.w	r6, r6, #4294967295
 80035e4:	1b92      	subs	r2, r2, r6
 80035e6:	6122      	str	r2, [r4, #16]
 80035e8:	f8cd a000 	str.w	sl, [sp]
 80035ec:	464b      	mov	r3, r9
 80035ee:	aa03      	add	r2, sp, #12
 80035f0:	4621      	mov	r1, r4
 80035f2:	4640      	mov	r0, r8
 80035f4:	f7ff fee2 	bl	80033bc <_printf_common>
 80035f8:	3001      	adds	r0, #1
 80035fa:	d14c      	bne.n	8003696 <_printf_i+0x1fe>
 80035fc:	f04f 30ff 	mov.w	r0, #4294967295
 8003600:	b004      	add	sp, #16
 8003602:	e8bd 87f0 	ldmia.w	sp!, {r4, r5, r6, r7, r8, r9, sl, pc}
 8003606:	4835      	ldr	r0, [pc, #212]	; (80036dc <_printf_i+0x244>)
 8003608:	f884 7045 	strb.w	r7, [r4, #69]	; 0x45
 800360c:	6823      	ldr	r3, [r4, #0]
 800360e:	680e      	ldr	r6, [r1, #0]
 8003610:	061f      	lsls	r7, r3, #24
 8003612:	f856 5b04 	ldr.w	r5, [r6], #4
 8003616:	600e      	str	r6, [r1, #0]
 8003618:	d514      	bpl.n	8003644 <_printf_i+0x1ac>
 800361a:	07d9      	lsls	r1, r3, #31
 800361c:	bf44      	itt	mi
 800361e:	f043 0320 	orrmi.w	r3, r3, #32
 8003622:	6023      	strmi	r3, [r4, #0]
 8003624:	b91d      	cbnz	r5, 800362e <_printf_i+0x196>
 8003626:	6823      	ldr	r3, [r4, #0]
 8003628:	f023 0320 	bic.w	r3, r3, #32
 800362c:	6023      	str	r3, [r4, #0]
 800362e:	2310      	movs	r3, #16
 8003630:	e7b0      	b.n	8003594 <_printf_i+0xfc>
 8003632:	6823      	ldr	r3, [r4, #0]
 8003634:	f043 0320 	orr.w	r3, r3, #32
 8003638:	6023      	str	r3, [r4, #0]
 800363a:	2378      	movs	r3, #120	; 0x78
 800363c:	4828      	ldr	r0, [pc, #160]	; (80036e0 <_printf_i+0x248>)
 800363e:	f884 3045 	strb.w	r3, [r4, #69]	; 0x45
 8003642:	e7e3      	b.n	800360c <_printf_i+0x174>
 8003644:	065e      	lsls	r6, r3, #25
 8003646:	bf48      	it	mi
 8003648:	b2ad      	uxthmi	r5, r5
 800364a:	e7e6      	b.n	800361a <_printf_i+0x182>
 800364c:	4616      	mov	r6, r2
 800364e:	e7bb      	b.n	80035c8 <_printf_i+0x130>
 8003650:	680b      	ldr	r3, [r1, #0]
 8003652:	6826      	ldr	r6, [r4, #0]
 8003654:	6960      	ldr	r0, [r4, #20]
 8003656:	1d1d      	adds	r5, r3, #4
 8003658:	600d      	str	r5, [r1, #0]
 800365a:	0635      	lsls	r5, r6, #24
 800365c:	681b      	ldr	r3, [r3, #0]
 800365e:	d501      	bpl.n	8003664 <_printf_i+0x1cc>
 8003660:	6018      	str	r0, [r3, #0]
 8003662:	e002      	b.n	800366a <_printf_i+0x1d2>
 8003664:	0671      	lsls	r1, r6, #25
 8003666:	d5fb      	bpl.n	8003660 <_printf_i+0x1c8>
 8003668:	8018      	strh	r0, [r3, #0]
 800366a:	2300      	movs	r3, #0
 800366c:	6123      	str	r3, [r4, #16]
 800366e:	4616      	mov	r6, r2
 8003670:	e7ba      	b.n	80035e8 <_printf_i+0x150>
 8003672:	680b      	ldr	r3, [r1, #0]
 8003674:	1d1a      	adds	r2, r3, #4
 8003676:	600a      	str	r2, [r1, #0]
 8003678:	681e      	ldr	r6, [r3, #0]
 800367a:	6862      	ldr	r2, [r4, #4]
 800367c:	2100      	movs	r1, #0
 800367e:	4630      	mov	r0, r6
 8003680:	f7fc fdae 	bl	80001e0 <memchr>
 8003684:	b108      	cbz	r0, 800368a <_printf_i+0x1f2>
 8003686:	1b80      	subs	r0, r0, r6
 8003688:	6060      	str	r0, [r4, #4]
 800368a:	6863      	ldr	r3, [r4, #4]
 800368c:	6123      	str	r3, [r4, #16]
 800368e:	2300      	movs	r3, #0
 8003690:	f884 3043 	strb.w	r3, [r4, #67]	; 0x43
 8003694:	e7a8      	b.n	80035e8 <_printf_i+0x150>
 8003696:	6923      	ldr	r3, [r4, #16]
 8003698:	4632      	mov	r2, r6
 800369a:	4649      	mov	r1, r9
 800369c:	4640      	mov	r0, r8
 800369e:	47d0      	blx	sl
 80036a0:	3001      	adds	r0, #1
 80036a2:	d0ab      	beq.n	80035fc <_printf_i+0x164>
 80036a4:	6823      	ldr	r3, [r4, #0]
 80036a6:	079b      	lsls	r3, r3, #30
 80036a8:	d413      	bmi.n	80036d2 <_printf_i+0x23a>
 80036aa:	68e0      	ldr	r0, [r4, #12]
 80036ac:	9b03      	ldr	r3, [sp, #12]
 80036ae:	4298      	cmp	r0, r3
 80036b0:	bfb8      	it	lt
 80036b2:	4618      	movlt	r0, r3
 80036b4:	e7a4      	b.n	8003600 <_printf_i+0x168>
 80036b6:	2301      	movs	r3, #1
 80036b8:	4632      	mov	r2, r6
 80036ba:	4649      	mov	r1, r9
 80036bc:	4640      	mov	r0, r8
 80036be:	47d0      	blx	sl
 80036c0:	3001      	adds	r0, #1
 80036c2:	d09b      	beq.n	80035fc <_printf_i+0x164>
 80036c4:	3501      	adds	r5, #1
 80036c6:	68e3      	ldr	r3, [r4, #12]
 80036c8:	9903      	ldr	r1, [sp, #12]
 80036ca:	1a5b      	subs	r3, r3, r1
 80036cc:	42ab      	cmp	r3, r5
 80036ce:	dcf2      	bgt.n	80036b6 <_printf_i+0x21e>
 80036d0:	e7eb      	b.n	80036aa <_printf_i+0x212>
 80036d2:	2500      	movs	r5, #0
 80036d4:	f104 0619 	add.w	r6, r4, #25
 80036d8:	e7f5      	b.n	80036c6 <_printf_i+0x22e>
 80036da:	bf00      	nop
 80036dc:	08005be6 	.word	0x08005be6
 80036e0:	08005bf7 	.word	0x08005bf7

080036e4 <siprintf>:
 80036e4:	b40e      	push	{r1, r2, r3}
 80036e6:	b500      	push	{lr}
 80036e8:	b09c      	sub	sp, #112	; 0x70
 80036ea:	ab1d      	add	r3, sp, #116	; 0x74
 80036ec:	9002      	str	r0, [sp, #8]
 80036ee:	9006      	str	r0, [sp, #24]
 80036f0:	f06f 4100 	mvn.w	r1, #2147483648	; 0x80000000
 80036f4:	4809      	ldr	r0, [pc, #36]	; (800371c <siprintf+0x38>)
 80036f6:	9107      	str	r1, [sp, #28]
 80036f8:	9104      	str	r1, [sp, #16]
 80036fa:	4909      	ldr	r1, [pc, #36]	; (8003720 <siprintf+0x3c>)
 80036fc:	f853 2b04 	ldr.w	r2, [r3], #4
 8003700:	9105      	str	r1, [sp, #20]
 8003702:	6800      	ldr	r0, [r0, #0]
 8003704:	9301      	str	r3, [sp, #4]
 8003706:	a902      	add	r1, sp, #8
 8003708:	f001 fb34 	bl	8004d74 <_svfiprintf_r>
 800370c:	9b02      	ldr	r3, [sp, #8]
 800370e:	2200      	movs	r2, #0
 8003710:	701a      	strb	r2, [r3, #0]
 8003712:	b01c      	add	sp, #112	; 0x70
 8003714:	f85d eb04 	ldr.w	lr, [sp], #4
 8003718:	b003      	add	sp, #12
 800371a:	4770      	bx	lr
 800371c:	2000000c 	.word	0x2000000c
 8003720:	ffff0208 	.word	0xffff0208

08003724 <quorem>:
 8003724:	e92d 4ff7 	stmdb	sp!, {r0, r1, r2, r4, r5, r6, r7, r8, r9, sl, fp, lr}
 8003728:	6903      	ldr	r3, [r0, #16]
 800372a:	690c      	ldr	r4, [r1, #16]
 800372c:	42a3      	cmp	r3, r4
 800372e:	4607      	mov	r7, r0
 8003730:	f2c0 8081 	blt.w	8003836 <quorem+0x112>
 8003734:	3c01      	subs	r4, #1
 8003736:	f101 0814 	add.w	r8, r1, #20
 800373a:	f100 0514 	add.w	r5, r0, #20
 800373e:	eb05 0384 	add.w	r3, r5, r4, lsl #2
 8003742:	9301      	str	r3, [sp, #4]
 8003744:	f858 3024 	ldr.w	r3, [r8, r4, lsl #2]
 8003748:	f855 2024 	ldr.w	r2, [r5, r4, lsl #2]
 800374c:	3301      	adds	r3, #1
 800374e:	429a      	cmp	r2, r3
 8003750:	ea4f 0b84 	mov.w	fp, r4, lsl #2
 8003754:	eb08 0984 	add.w	r9, r8, r4, lsl #2
 8003758:	fbb2 f6f3 	udiv	r6, r2, r3
 800375c:	d331      	bcc.n	80037c2 <quorem+0x9e>
 800375e:	f04f 0e00 	mov.w	lr, #0
 8003762:	4640      	mov	r0, r8
 8003764:	46ac      	mov	ip, r5
 8003766:	46f2      	mov	sl, lr
 8003768:	f850 2b04 	ldr.w	r2, [r0], #4
 800376c:	b293      	uxth	r3, r2
 800376e:	fb06 e303 	mla	r3, r6, r3, lr
 8003772:	ea4f 4e13 	mov.w	lr, r3, lsr #16
 8003776:	b29b      	uxth	r3, r3
 8003778:	ebaa 0303 	sub.w	r3, sl, r3
 800377c:	0c12      	lsrs	r2, r2, #16
 800377e:	f8dc a000 	ldr.w	sl, [ip]
 8003782:	fb06 e202 	mla	r2, r6, r2, lr
 8003786:	fa13 f38a 	uxtah	r3, r3, sl
 800378a:	ea4f 4e12 	mov.w	lr, r2, lsr #16
 800378e:	fa1f fa82 	uxth.w	sl, r2
 8003792:	f8dc 2000 	ldr.w	r2, [ip]
 8003796:	ebca 4212 	rsb	r2, sl, r2, lsr #16
 800379a:	eb02 4223 	add.w	r2, r2, r3, asr #16
 800379e:	b29b      	uxth	r3, r3
 80037a0:	ea43 4302 	orr.w	r3, r3, r2, lsl #16
 80037a4:	4581      	cmp	r9, r0
 80037a6:	f84c 3b04 	str.w	r3, [ip], #4
 80037aa:	ea4f 4a22 	mov.w	sl, r2, asr #16
 80037ae:	d2db      	bcs.n	8003768 <quorem+0x44>
 80037b0:	f855 300b 	ldr.w	r3, [r5, fp]
 80037b4:	b92b      	cbnz	r3, 80037c2 <quorem+0x9e>
 80037b6:	9b01      	ldr	r3, [sp, #4]
 80037b8:	3b04      	subs	r3, #4
 80037ba:	429d      	cmp	r5, r3
 80037bc:	461a      	mov	r2, r3
 80037be:	d32e      	bcc.n	800381e <quorem+0xfa>
 80037c0:	613c      	str	r4, [r7, #16]
 80037c2:	4638      	mov	r0, r7
 80037c4:	f001 f8c0 	bl	8004948 <__mcmp>
 80037c8:	2800      	cmp	r0, #0
 80037ca:	db24      	blt.n	8003816 <quorem+0xf2>
 80037cc:	3601      	adds	r6, #1
 80037ce:	4628      	mov	r0, r5
 80037d0:	f04f 0c00 	mov.w	ip, #0
 80037d4:	f858 2b04 	ldr.w	r2, [r8], #4
 80037d8:	f8d0 e000 	ldr.w	lr, [r0]
 80037dc:	b293      	uxth	r3, r2
 80037de:	ebac 0303 	sub.w	r3, ip, r3
 80037e2:	0c12      	lsrs	r2, r2, #16
 80037e4:	fa13 f38e 	uxtah	r3, r3, lr
 80037e8:	ebc2 421e 	rsb	r2, r2, lr, lsr #16
 80037ec:	eb02 4223 	add.w	r2, r2, r3, asr #16
 80037f0:	b29b      	uxth	r3, r3
 80037f2:	ea43 4302 	orr.w	r3, r3, r2, lsl #16
 80037f6:	45c1      	cmp	r9, r8
 80037f8:	f840 3b04 	str.w	r3, [r0], #4
 80037fc:	ea4f 4c22 	mov.w	ip, r2, asr #16
 8003800:	d2e8      	bcs.n	80037d4 <quorem+0xb0>
 8003802:	f855 2024 	ldr.w	r2, [r5, r4, lsl #2]
 8003806:	eb05 0384 	add.w	r3, r5, r4, lsl #2
 800380a:	b922      	cbnz	r2, 8003816 <quorem+0xf2>
 800380c:	3b04      	subs	r3, #4
 800380e:	429d      	cmp	r5, r3
 8003810:	461a      	mov	r2, r3
 8003812:	d30a      	bcc.n	800382a <quorem+0x106>
 8003814:	613c      	str	r4, [r7, #16]
 8003816:	4630      	mov	r0, r6
 8003818:	b003      	add	sp, #12
 800381a:	e8bd 8ff0 	ldmia.w	sp!, {r4, r5, r6, r7, r8, r9, sl, fp, pc}
 800381e:	6812      	ldr	r2, [r2, #0]
 8003820:	3b04      	subs	r3, #4
 8003822:	2a00      	cmp	r2, #0
 8003824:	d1cc      	bne.n	80037c0 <quorem+0x9c>
 8003826:	3c01      	subs	r4, #1
 8003828:	e7c7      	b.n	80037ba <quorem+0x96>
 800382a:	6812      	ldr	r2, [r2, #0]
 800382c:	3b04      	subs	r3, #4
 800382e:	2a00      	cmp	r2, #0
 8003830:	d1f0      	bne.n	8003814 <quorem+0xf0>
 8003832:	3c01      	subs	r4, #1
 8003834:	e7eb      	b.n	800380e <quorem+0xea>
 8003836:	2000      	movs	r0, #0
 8003838:	e7ee      	b.n	8003818 <quorem+0xf4>
 800383a:	0000      	movs	r0, r0
 800383c:	0000      	movs	r0, r0
	...

08003840 <_dtoa_r>:
 8003840:	e92d 4ff0 	stmdb	sp!, {r4, r5, r6, r7, r8, r9, sl, fp, lr}
 8003844:	ed2d 8b02 	vpush	{d8}
 8003848:	ec57 6b10 	vmov	r6, r7, d0
 800384c:	b095      	sub	sp, #84	; 0x54
 800384e:	6a45      	ldr	r5, [r0, #36]	; 0x24
 8003850:	f8dd 8080 	ldr.w	r8, [sp, #128]	; 0x80
 8003854:	9105      	str	r1, [sp, #20]
 8003856:	e9cd 6702 	strd	r6, r7, [sp, #8]
 800385a:	4604      	mov	r4, r0
 800385c:	9209      	str	r2, [sp, #36]	; 0x24
 800385e:	930f      	str	r3, [sp, #60]	; 0x3c
 8003860:	b975      	cbnz	r5, 8003880 <_dtoa_r+0x40>
 8003862:	2010      	movs	r0, #16
 8003864:	f000 fddc 	bl	8004420 <malloc>
 8003868:	4602      	mov	r2, r0
 800386a:	6260      	str	r0, [r4, #36]	; 0x24
 800386c:	b920      	cbnz	r0, 8003878 <_dtoa_r+0x38>
 800386e:	4bb2      	ldr	r3, [pc, #712]	; (8003b38 <_dtoa_r+0x2f8>)
 8003870:	21ea      	movs	r1, #234	; 0xea
 8003872:	48b2      	ldr	r0, [pc, #712]	; (8003b3c <_dtoa_r+0x2fc>)
 8003874:	f001 fb8e 	bl	8004f94 <__assert_func>
 8003878:	e9c0 5501 	strd	r5, r5, [r0, #4]
 800387c:	6005      	str	r5, [r0, #0]
 800387e:	60c5      	str	r5, [r0, #12]
 8003880:	6a63      	ldr	r3, [r4, #36]	; 0x24
 8003882:	6819      	ldr	r1, [r3, #0]
 8003884:	b151      	cbz	r1, 800389c <_dtoa_r+0x5c>
 8003886:	685a      	ldr	r2, [r3, #4]
 8003888:	604a      	str	r2, [r1, #4]
 800388a:	2301      	movs	r3, #1
 800388c:	4093      	lsls	r3, r2
 800388e:	608b      	str	r3, [r1, #8]
 8003890:	4620      	mov	r0, r4
 8003892:	f000 fe1b 	bl	80044cc <_Bfree>
 8003896:	6a63      	ldr	r3, [r4, #36]	; 0x24
 8003898:	2200      	movs	r2, #0
 800389a:	601a      	str	r2, [r3, #0]
 800389c:	1e3b      	subs	r3, r7, #0
 800389e:	bfb9      	ittee	lt
 80038a0:	f023 4300 	biclt.w	r3, r3, #2147483648	; 0x80000000
 80038a4:	9303      	strlt	r3, [sp, #12]
 80038a6:	2300      	movge	r3, #0
 80038a8:	f8c8 3000 	strge.w	r3, [r8]
 80038ac:	f8dd 900c 	ldr.w	r9, [sp, #12]
 80038b0:	4ba3      	ldr	r3, [pc, #652]	; (8003b40 <_dtoa_r+0x300>)
 80038b2:	bfbc      	itt	lt
 80038b4:	2201      	movlt	r2, #1
 80038b6:	f8c8 2000 	strlt.w	r2, [r8]
 80038ba:	ea33 0309 	bics.w	r3, r3, r9
 80038be:	d11b      	bne.n	80038f8 <_dtoa_r+0xb8>
 80038c0:	9a0f      	ldr	r2, [sp, #60]	; 0x3c
 80038c2:	f242 730f 	movw	r3, #9999	; 0x270f
 80038c6:	6013      	str	r3, [r2, #0]
 80038c8:	f3c9 0313 	ubfx	r3, r9, #0, #20
 80038cc:	4333      	orrs	r3, r6
 80038ce:	f000 857a 	beq.w	80043c6 <_dtoa_r+0xb86>
 80038d2:	9b21      	ldr	r3, [sp, #132]	; 0x84
 80038d4:	b963      	cbnz	r3, 80038f0 <_dtoa_r+0xb0>
 80038d6:	4b9b      	ldr	r3, [pc, #620]	; (8003b44 <_dtoa_r+0x304>)
 80038d8:	e024      	b.n	8003924 <_dtoa_r+0xe4>
 80038da:	4b9b      	ldr	r3, [pc, #620]	; (8003b48 <_dtoa_r+0x308>)
 80038dc:	9300      	str	r3, [sp, #0]
 80038de:	3308      	adds	r3, #8
 80038e0:	9a21      	ldr	r2, [sp, #132]	; 0x84
 80038e2:	6013      	str	r3, [r2, #0]
 80038e4:	9800      	ldr	r0, [sp, #0]
 80038e6:	b015      	add	sp, #84	; 0x54
 80038e8:	ecbd 8b02 	vpop	{d8}
 80038ec:	e8bd 8ff0 	ldmia.w	sp!, {r4, r5, r6, r7, r8, r9, sl, fp, pc}
 80038f0:	4b94      	ldr	r3, [pc, #592]	; (8003b44 <_dtoa_r+0x304>)
 80038f2:	9300      	str	r3, [sp, #0]
 80038f4:	3303      	adds	r3, #3
 80038f6:	e7f3      	b.n	80038e0 <_dtoa_r+0xa0>
 80038f8:	ed9d 7b02 	vldr	d7, [sp, #8]
 80038fc:	2200      	movs	r2, #0
 80038fe:	ec51 0b17 	vmov	r0, r1, d7
 8003902:	2300      	movs	r3, #0
 8003904:	ed8d 7b0a 	vstr	d7, [sp, #40]	; 0x28
 8003908:	f7fd f8de 	bl	8000ac8 <__aeabi_dcmpeq>
 800390c:	4680      	mov	r8, r0
 800390e:	b158      	cbz	r0, 8003928 <_dtoa_r+0xe8>
 8003910:	9a0f      	ldr	r2, [sp, #60]	; 0x3c
 8003912:	2301      	movs	r3, #1
 8003914:	6013      	str	r3, [r2, #0]
 8003916:	9b21      	ldr	r3, [sp, #132]	; 0x84
 8003918:	2b00      	cmp	r3, #0
 800391a:	f000 8551 	beq.w	80043c0 <_dtoa_r+0xb80>
 800391e:	488b      	ldr	r0, [pc, #556]	; (8003b4c <_dtoa_r+0x30c>)
 8003920:	6018      	str	r0, [r3, #0]
 8003922:	1e43      	subs	r3, r0, #1
 8003924:	9300      	str	r3, [sp, #0]
 8003926:	e7dd      	b.n	80038e4 <_dtoa_r+0xa4>
 8003928:	ed9d 0b0a 	vldr	d0, [sp, #40]	; 0x28
 800392c:	aa12      	add	r2, sp, #72	; 0x48
 800392e:	a913      	add	r1, sp, #76	; 0x4c
 8003930:	4620      	mov	r0, r4
 8003932:	f001 f8ad 	bl	8004a90 <__d2b>
 8003936:	f3c9 550a 	ubfx	r5, r9, #20, #11
 800393a:	4683      	mov	fp, r0
 800393c:	2d00      	cmp	r5, #0
 800393e:	d07c      	beq.n	8003a3a <_dtoa_r+0x1fa>
 8003940:	9b0b      	ldr	r3, [sp, #44]	; 0x2c
 8003942:	f8cd 8040 	str.w	r8, [sp, #64]	; 0x40
 8003946:	f3c3 0313 	ubfx	r3, r3, #0, #20
 800394a:	e9dd 670a 	ldrd	r6, r7, [sp, #40]	; 0x28
 800394e:	f043 577f 	orr.w	r7, r3, #1069547520	; 0x3fc00000
 8003952:	f447 1740 	orr.w	r7, r7, #3145728	; 0x300000
 8003956:	f2a5 35ff 	subw	r5, r5, #1023	; 0x3ff
 800395a:	4b7d      	ldr	r3, [pc, #500]	; (8003b50 <_dtoa_r+0x310>)
 800395c:	2200      	movs	r2, #0
 800395e:	4630      	mov	r0, r6
 8003960:	4639      	mov	r1, r7
 8003962:	f7fc fc91 	bl	8000288 <__aeabi_dsub>
 8003966:	a36e      	add	r3, pc, #440	; (adr r3, 8003b20 <_dtoa_r+0x2e0>)
 8003968:	e9d3 2300 	ldrd	r2, r3, [r3]
 800396c:	f7fc fe44 	bl	80005f8 <__aeabi_dmul>
 8003970:	a36d      	add	r3, pc, #436	; (adr r3, 8003b28 <_dtoa_r+0x2e8>)
 8003972:	e9d3 2300 	ldrd	r2, r3, [r3]
 8003976:	f7fc fc89 	bl	800028c <__adddf3>
 800397a:	4606      	mov	r6, r0
 800397c:	4628      	mov	r0, r5
 800397e:	460f      	mov	r7, r1
 8003980:	f7fc fdd0 	bl	8000524 <__aeabi_i2d>
 8003984:	a36a      	add	r3, pc, #424	; (adr r3, 8003b30 <_dtoa_r+0x2f0>)
 8003986:	e9d3 2300 	ldrd	r2, r3, [r3]
 800398a:	f7fc fe35 	bl	80005f8 <__aeabi_dmul>
 800398e:	4602      	mov	r2, r0
 8003990:	460b      	mov	r3, r1
 8003992:	4630      	mov	r0, r6
 8003994:	4639      	mov	r1, r7
 8003996:	f7fc fc79 	bl	800028c <__adddf3>
 800399a:	4606      	mov	r6, r0
 800399c:	460f      	mov	r7, r1
 800399e:	f7fd f8db 	bl	8000b58 <__aeabi_d2iz>
 80039a2:	2200      	movs	r2, #0
 80039a4:	4682      	mov	sl, r0
 80039a6:	2300      	movs	r3, #0
 80039a8:	4630      	mov	r0, r6
 80039aa:	4639      	mov	r1, r7
 80039ac:	f7fd f896 	bl	8000adc <__aeabi_dcmplt>
 80039b0:	b148      	cbz	r0, 80039c6 <_dtoa_r+0x186>
 80039b2:	4650      	mov	r0, sl
 80039b4:	f7fc fdb6 	bl	8000524 <__aeabi_i2d>
 80039b8:	4632      	mov	r2, r6
 80039ba:	463b      	mov	r3, r7
 80039bc:	f7fd f884 	bl	8000ac8 <__aeabi_dcmpeq>
 80039c0:	b908      	cbnz	r0, 80039c6 <_dtoa_r+0x186>
 80039c2:	f10a 3aff 	add.w	sl, sl, #4294967295
 80039c6:	f1ba 0f16 	cmp.w	sl, #22
 80039ca:	d854      	bhi.n	8003a76 <_dtoa_r+0x236>
 80039cc:	4b61      	ldr	r3, [pc, #388]	; (8003b54 <_dtoa_r+0x314>)
 80039ce:	eb03 03ca 	add.w	r3, r3, sl, lsl #3
 80039d2:	e9d3 2300 	ldrd	r2, r3, [r3]
 80039d6:	e9dd 010a 	ldrd	r0, r1, [sp, #40]	; 0x28
 80039da:	f7fd f87f 	bl	8000adc <__aeabi_dcmplt>
 80039de:	2800      	cmp	r0, #0
 80039e0:	d04b      	beq.n	8003a7a <_dtoa_r+0x23a>
 80039e2:	f10a 3aff 	add.w	sl, sl, #4294967295
 80039e6:	2300      	movs	r3, #0
 80039e8:	930e      	str	r3, [sp, #56]	; 0x38
 80039ea:	9b12      	ldr	r3, [sp, #72]	; 0x48
 80039ec:	1b5d      	subs	r5, r3, r5
 80039ee:	1e6b      	subs	r3, r5, #1
 80039f0:	9304      	str	r3, [sp, #16]
 80039f2:	bf43      	ittte	mi
 80039f4:	2300      	movmi	r3, #0
 80039f6:	f1c5 0801 	rsbmi	r8, r5, #1
 80039fa:	9304      	strmi	r3, [sp, #16]
 80039fc:	f04f 0800 	movpl.w	r8, #0
 8003a00:	f1ba 0f00 	cmp.w	sl, #0
 8003a04:	db3b      	blt.n	8003a7e <_dtoa_r+0x23e>
 8003a06:	9b04      	ldr	r3, [sp, #16]
 8003a08:	f8cd a034 	str.w	sl, [sp, #52]	; 0x34
 8003a0c:	4453      	add	r3, sl
 8003a0e:	9304      	str	r3, [sp, #16]
 8003a10:	2300      	movs	r3, #0
 8003a12:	9306      	str	r3, [sp, #24]
 8003a14:	9b05      	ldr	r3, [sp, #20]
 8003a16:	2b09      	cmp	r3, #9
 8003a18:	d869      	bhi.n	8003aee <_dtoa_r+0x2ae>
 8003a1a:	2b05      	cmp	r3, #5
 8003a1c:	bfc4      	itt	gt
 8003a1e:	3b04      	subgt	r3, #4
 8003a20:	9305      	strgt	r3, [sp, #20]
 8003a22:	9b05      	ldr	r3, [sp, #20]
 8003a24:	f1a3 0302 	sub.w	r3, r3, #2
 8003a28:	bfcc      	ite	gt
 8003a2a:	2500      	movgt	r5, #0
 8003a2c:	2501      	movle	r5, #1
 8003a2e:	2b03      	cmp	r3, #3
 8003a30:	d869      	bhi.n	8003b06 <_dtoa_r+0x2c6>
 8003a32:	e8df f003 	tbb	[pc, r3]
 8003a36:	4e2c      	.short	0x4e2c
 8003a38:	5a4c      	.short	0x5a4c
 8003a3a:	e9dd 5312 	ldrd	r5, r3, [sp, #72]	; 0x48
 8003a3e:	441d      	add	r5, r3
 8003a40:	f205 4332 	addw	r3, r5, #1074	; 0x432
 8003a44:	2b20      	cmp	r3, #32
 8003a46:	bfc1      	itttt	gt
 8003a48:	f1c3 0340 	rsbgt	r3, r3, #64	; 0x40
 8003a4c:	f205 4012 	addwgt	r0, r5, #1042	; 0x412
 8003a50:	fa09 f303 	lslgt.w	r3, r9, r3
 8003a54:	fa26 f000 	lsrgt.w	r0, r6, r0
 8003a58:	bfda      	itte	le
 8003a5a:	f1c3 0320 	rsble	r3, r3, #32
 8003a5e:	fa06 f003 	lslle.w	r0, r6, r3
 8003a62:	4318      	orrgt	r0, r3
 8003a64:	f7fc fd4e 	bl	8000504 <__aeabi_ui2d>
 8003a68:	2301      	movs	r3, #1
 8003a6a:	4606      	mov	r6, r0
 8003a6c:	f1a1 77f8 	sub.w	r7, r1, #32505856	; 0x1f00000
 8003a70:	3d01      	subs	r5, #1
 8003a72:	9310      	str	r3, [sp, #64]	; 0x40
 8003a74:	e771      	b.n	800395a <_dtoa_r+0x11a>
 8003a76:	2301      	movs	r3, #1
 8003a78:	e7b6      	b.n	80039e8 <_dtoa_r+0x1a8>
 8003a7a:	900e      	str	r0, [sp, #56]	; 0x38
 8003a7c:	e7b5      	b.n	80039ea <_dtoa_r+0x1aa>
 8003a7e:	f1ca 0300 	rsb	r3, sl, #0
 8003a82:	9306      	str	r3, [sp, #24]
 8003a84:	2300      	movs	r3, #0
 8003a86:	eba8 080a 	sub.w	r8, r8, sl
 8003a8a:	930d      	str	r3, [sp, #52]	; 0x34
 8003a8c:	e7c2      	b.n	8003a14 <_dtoa_r+0x1d4>
 8003a8e:	2300      	movs	r3, #0
 8003a90:	9308      	str	r3, [sp, #32]
 8003a92:	9b09      	ldr	r3, [sp, #36]	; 0x24
 8003a94:	2b00      	cmp	r3, #0
 8003a96:	dc39      	bgt.n	8003b0c <_dtoa_r+0x2cc>
 8003a98:	f04f 0901 	mov.w	r9, #1
 8003a9c:	f8cd 9004 	str.w	r9, [sp, #4]
 8003aa0:	464b      	mov	r3, r9
 8003aa2:	f8cd 9024 	str.w	r9, [sp, #36]	; 0x24
 8003aa6:	6a60      	ldr	r0, [r4, #36]	; 0x24
 8003aa8:	2200      	movs	r2, #0
 8003aaa:	6042      	str	r2, [r0, #4]
 8003aac:	2204      	movs	r2, #4
 8003aae:	f102 0614 	add.w	r6, r2, #20
 8003ab2:	429e      	cmp	r6, r3
 8003ab4:	6841      	ldr	r1, [r0, #4]
 8003ab6:	d92f      	bls.n	8003b18 <_dtoa_r+0x2d8>
 8003ab8:	4620      	mov	r0, r4
 8003aba:	f000 fcc7 	bl	800444c <_Balloc>
 8003abe:	9000      	str	r0, [sp, #0]
 8003ac0:	2800      	cmp	r0, #0
 8003ac2:	d14b      	bne.n	8003b5c <_dtoa_r+0x31c>
 8003ac4:	4b24      	ldr	r3, [pc, #144]	; (8003b58 <_dtoa_r+0x318>)
 8003ac6:	4602      	mov	r2, r0
 8003ac8:	f44f 71d5 	mov.w	r1, #426	; 0x1aa
 8003acc:	e6d1      	b.n	8003872 <_dtoa_r+0x32>
 8003ace:	2301      	movs	r3, #1
 8003ad0:	e7de      	b.n	8003a90 <_dtoa_r+0x250>
 8003ad2:	2300      	movs	r3, #0
 8003ad4:	9308      	str	r3, [sp, #32]
 8003ad6:	9b09      	ldr	r3, [sp, #36]	; 0x24
 8003ad8:	eb0a 0903 	add.w	r9, sl, r3
 8003adc:	f109 0301 	add.w	r3, r9, #1
 8003ae0:	2b01      	cmp	r3, #1
 8003ae2:	9301      	str	r3, [sp, #4]
 8003ae4:	bfb8      	it	lt
 8003ae6:	2301      	movlt	r3, #1
 8003ae8:	e7dd      	b.n	8003aa6 <_dtoa_r+0x266>
 8003aea:	2301      	movs	r3, #1
 8003aec:	e7f2      	b.n	8003ad4 <_dtoa_r+0x294>
 8003aee:	2501      	movs	r5, #1
 8003af0:	2300      	movs	r3, #0
 8003af2:	9305      	str	r3, [sp, #20]
 8003af4:	9508      	str	r5, [sp, #32]
 8003af6:	f04f 39ff 	mov.w	r9, #4294967295
 8003afa:	2200      	movs	r2, #0
 8003afc:	f8cd 9004 	str.w	r9, [sp, #4]
 8003b00:	2312      	movs	r3, #18
 8003b02:	9209      	str	r2, [sp, #36]	; 0x24
 8003b04:	e7cf      	b.n	8003aa6 <_dtoa_r+0x266>
 8003b06:	2301      	movs	r3, #1
 8003b08:	9308      	str	r3, [sp, #32]
 8003b0a:	e7f4      	b.n	8003af6 <_dtoa_r+0x2b6>
 8003b0c:	f8dd 9024 	ldr.w	r9, [sp, #36]	; 0x24
 8003b10:	f8cd 9004 	str.w	r9, [sp, #4]
 8003b14:	464b      	mov	r3, r9
 8003b16:	e7c6      	b.n	8003aa6 <_dtoa_r+0x266>
 8003b18:	3101      	adds	r1, #1
 8003b1a:	6041      	str	r1, [r0, #4]
 8003b1c:	0052      	lsls	r2, r2, #1
 8003b1e:	e7c6      	b.n	8003aae <_dtoa_r+0x26e>
 8003b20:	636f4361 	.word	0x636f4361
 8003b24:	3fd287a7 	.word	0x3fd287a7
 8003b28:	8b60c8b3 	.word	0x8b60c8b3
 8003b2c:	3fc68a28 	.word	0x3fc68a28
 8003b30:	509f79fb 	.word	0x509f79fb
 8003b34:	3fd34413 	.word	0x3fd34413
 8003b38:	08005c15 	.word	0x08005c15
 8003b3c:	08005c2c 	.word	0x08005c2c
 8003b40:	7ff00000 	.word	0x7ff00000
 8003b44:	08005c11 	.word	0x08005c11
 8003b48:	08005c08 	.word	0x08005c08
 8003b4c:	08005be5 	.word	0x08005be5
 8003b50:	3ff80000 	.word	0x3ff80000
 8003b54:	08005d28 	.word	0x08005d28
 8003b58:	08005c8b 	.word	0x08005c8b
 8003b5c:	6a63      	ldr	r3, [r4, #36]	; 0x24
 8003b5e:	9a00      	ldr	r2, [sp, #0]
 8003b60:	601a      	str	r2, [r3, #0]
 8003b62:	9b01      	ldr	r3, [sp, #4]
 8003b64:	2b0e      	cmp	r3, #14
 8003b66:	f200 80ad 	bhi.w	8003cc4 <_dtoa_r+0x484>
 8003b6a:	2d00      	cmp	r5, #0
 8003b6c:	f000 80aa 	beq.w	8003cc4 <_dtoa_r+0x484>
 8003b70:	f1ba 0f00 	cmp.w	sl, #0
 8003b74:	dd36      	ble.n	8003be4 <_dtoa_r+0x3a4>
 8003b76:	4ac3      	ldr	r2, [pc, #780]	; (8003e84 <_dtoa_r+0x644>)
 8003b78:	f00a 030f 	and.w	r3, sl, #15
 8003b7c:	eb02 03c3 	add.w	r3, r2, r3, lsl #3
 8003b80:	ed93 7b00 	vldr	d7, [r3]
 8003b84:	f41a 7f80 	tst.w	sl, #256	; 0x100
 8003b88:	ea4f 172a 	mov.w	r7, sl, asr #4
 8003b8c:	eeb0 8a47 	vmov.f32	s16, s14
 8003b90:	eef0 8a67 	vmov.f32	s17, s15
 8003b94:	d016      	beq.n	8003bc4 <_dtoa_r+0x384>
 8003b96:	4bbc      	ldr	r3, [pc, #752]	; (8003e88 <_dtoa_r+0x648>)
 8003b98:	e9dd 010a 	ldrd	r0, r1, [sp, #40]	; 0x28
 8003b9c:	e9d3 2308 	ldrd	r2, r3, [r3, #32]
 8003ba0:	f7fc fe54 	bl	800084c <__aeabi_ddiv>
 8003ba4:	e9cd 0102 	strd	r0, r1, [sp, #8]
 8003ba8:	f007 070f 	and.w	r7, r7, #15
 8003bac:	2503      	movs	r5, #3
 8003bae:	4eb6      	ldr	r6, [pc, #728]	; (8003e88 <_dtoa_r+0x648>)
 8003bb0:	b957      	cbnz	r7, 8003bc8 <_dtoa_r+0x388>
 8003bb2:	e9dd 0102 	ldrd	r0, r1, [sp, #8]
 8003bb6:	ec53 2b18 	vmov	r2, r3, d8
 8003bba:	f7fc fe47 	bl	800084c <__aeabi_ddiv>
 8003bbe:	e9cd 0102 	strd	r0, r1, [sp, #8]
 8003bc2:	e029      	b.n	8003c18 <_dtoa_r+0x3d8>
 8003bc4:	2502      	movs	r5, #2
 8003bc6:	e7f2      	b.n	8003bae <_dtoa_r+0x36e>
 8003bc8:	07f9      	lsls	r1, r7, #31
 8003bca:	d508      	bpl.n	8003bde <_dtoa_r+0x39e>
 8003bcc:	ec51 0b18 	vmov	r0, r1, d8
 8003bd0:	e9d6 2300 	ldrd	r2, r3, [r6]
 8003bd4:	f7fc fd10 	bl	80005f8 <__aeabi_dmul>
 8003bd8:	ec41 0b18 	vmov	d8, r0, r1
 8003bdc:	3501      	adds	r5, #1
 8003bde:	107f      	asrs	r7, r7, #1
 8003be0:	3608      	adds	r6, #8
 8003be2:	e7e5      	b.n	8003bb0 <_dtoa_r+0x370>
 8003be4:	f000 80a6 	beq.w	8003d34 <_dtoa_r+0x4f4>
 8003be8:	f1ca 0600 	rsb	r6, sl, #0
 8003bec:	4ba5      	ldr	r3, [pc, #660]	; (8003e84 <_dtoa_r+0x644>)
 8003bee:	4fa6      	ldr	r7, [pc, #664]	; (8003e88 <_dtoa_r+0x648>)
 8003bf0:	f006 020f 	and.w	r2, r6, #15
 8003bf4:	eb03 03c2 	add.w	r3, r3, r2, lsl #3
 8003bf8:	e9d3 2300 	ldrd	r2, r3, [r3]
 8003bfc:	e9dd 010a 	ldrd	r0, r1, [sp, #40]	; 0x28
 8003c00:	f7fc fcfa 	bl	80005f8 <__aeabi_dmul>
 8003c04:	e9cd 0102 	strd	r0, r1, [sp, #8]
 8003c08:	1136      	asrs	r6, r6, #4
 8003c0a:	2300      	movs	r3, #0
 8003c0c:	2502      	movs	r5, #2
 8003c0e:	2e00      	cmp	r6, #0
 8003c10:	f040 8085 	bne.w	8003d1e <_dtoa_r+0x4de>
 8003c14:	2b00      	cmp	r3, #0
 8003c16:	d1d2      	bne.n	8003bbe <_dtoa_r+0x37e>
 8003c18:	9b0e      	ldr	r3, [sp, #56]	; 0x38
 8003c1a:	2b00      	cmp	r3, #0
 8003c1c:	f000 808c 	beq.w	8003d38 <_dtoa_r+0x4f8>
 8003c20:	e9dd 6702 	ldrd	r6, r7, [sp, #8]
 8003c24:	4b99      	ldr	r3, [pc, #612]	; (8003e8c <_dtoa_r+0x64c>)
 8003c26:	2200      	movs	r2, #0
 8003c28:	4630      	mov	r0, r6
 8003c2a:	4639      	mov	r1, r7
 8003c2c:	f7fc ff56 	bl	8000adc <__aeabi_dcmplt>
 8003c30:	2800      	cmp	r0, #0
 8003c32:	f000 8081 	beq.w	8003d38 <_dtoa_r+0x4f8>
 8003c36:	9b01      	ldr	r3, [sp, #4]
 8003c38:	2b00      	cmp	r3, #0
 8003c3a:	d07d      	beq.n	8003d38 <_dtoa_r+0x4f8>
 8003c3c:	f1b9 0f00 	cmp.w	r9, #0
 8003c40:	dd3c      	ble.n	8003cbc <_dtoa_r+0x47c>
 8003c42:	f10a 33ff 	add.w	r3, sl, #4294967295
 8003c46:	9307      	str	r3, [sp, #28]
 8003c48:	2200      	movs	r2, #0
 8003c4a:	4b91      	ldr	r3, [pc, #580]	; (8003e90 <_dtoa_r+0x650>)
 8003c4c:	4630      	mov	r0, r6
 8003c4e:	4639      	mov	r1, r7
 8003c50:	f7fc fcd2 	bl	80005f8 <__aeabi_dmul>
 8003c54:	e9cd 0102 	strd	r0, r1, [sp, #8]
 8003c58:	3501      	adds	r5, #1
 8003c5a:	f8cd 9030 	str.w	r9, [sp, #48]	; 0x30
 8003c5e:	e9dd 6702 	ldrd	r6, r7, [sp, #8]
 8003c62:	4628      	mov	r0, r5
 8003c64:	f7fc fc5e 	bl	8000524 <__aeabi_i2d>
 8003c68:	4632      	mov	r2, r6
 8003c6a:	463b      	mov	r3, r7
 8003c6c:	f7fc fcc4 	bl	80005f8 <__aeabi_dmul>
 8003c70:	4b88      	ldr	r3, [pc, #544]	; (8003e94 <_dtoa_r+0x654>)
 8003c72:	2200      	movs	r2, #0
 8003c74:	f7fc fb0a 	bl	800028c <__adddf3>
 8003c78:	f1a1 7350 	sub.w	r3, r1, #54525952	; 0x3400000
 8003c7c:	e9cd 0102 	strd	r0, r1, [sp, #8]
 8003c80:	9303      	str	r3, [sp, #12]
 8003c82:	9b0c      	ldr	r3, [sp, #48]	; 0x30
 8003c84:	2b00      	cmp	r3, #0
 8003c86:	d15c      	bne.n	8003d42 <_dtoa_r+0x502>
 8003c88:	4b83      	ldr	r3, [pc, #524]	; (8003e98 <_dtoa_r+0x658>)
 8003c8a:	2200      	movs	r2, #0
 8003c8c:	4630      	mov	r0, r6
 8003c8e:	4639      	mov	r1, r7
 8003c90:	f7fc fafa 	bl	8000288 <__aeabi_dsub>
 8003c94:	e9dd 2302 	ldrd	r2, r3, [sp, #8]
 8003c98:	4606      	mov	r6, r0
 8003c9a:	460f      	mov	r7, r1
 8003c9c:	f7fc ff3c 	bl	8000b18 <__aeabi_dcmpgt>
 8003ca0:	2800      	cmp	r0, #0
 8003ca2:	f040 8296 	bne.w	80041d2 <_dtoa_r+0x992>
 8003ca6:	e9dd 2102 	ldrd	r2, r1, [sp, #8]
 8003caa:	4630      	mov	r0, r6
 8003cac:	f101 4300 	add.w	r3, r1, #2147483648	; 0x80000000
 8003cb0:	4639      	mov	r1, r7
 8003cb2:	f7fc ff13 	bl	8000adc <__aeabi_dcmplt>
 8003cb6:	2800      	cmp	r0, #0
 8003cb8:	f040 8288 	bne.w	80041cc <_dtoa_r+0x98c>
 8003cbc:	e9dd 230a 	ldrd	r2, r3, [sp, #40]	; 0x28
 8003cc0:	e9cd 2302 	strd	r2, r3, [sp, #8]
 8003cc4:	9b13      	ldr	r3, [sp, #76]	; 0x4c
 8003cc6:	2b00      	cmp	r3, #0
 8003cc8:	f2c0 8158 	blt.w	8003f7c <_dtoa_r+0x73c>
 8003ccc:	f1ba 0f0e 	cmp.w	sl, #14
 8003cd0:	f300 8154 	bgt.w	8003f7c <_dtoa_r+0x73c>
 8003cd4:	4b6b      	ldr	r3, [pc, #428]	; (8003e84 <_dtoa_r+0x644>)
 8003cd6:	eb03 03ca 	add.w	r3, r3, sl, lsl #3
 8003cda:	e9d3 8900 	ldrd	r8, r9, [r3]
 8003cde:	9b09      	ldr	r3, [sp, #36]	; 0x24
 8003ce0:	2b00      	cmp	r3, #0
 8003ce2:	f280 80e3 	bge.w	8003eac <_dtoa_r+0x66c>
 8003ce6:	9b01      	ldr	r3, [sp, #4]
 8003ce8:	2b00      	cmp	r3, #0
 8003cea:	f300 80df 	bgt.w	8003eac <_dtoa_r+0x66c>
 8003cee:	f040 826d 	bne.w	80041cc <_dtoa_r+0x98c>
 8003cf2:	4b69      	ldr	r3, [pc, #420]	; (8003e98 <_dtoa_r+0x658>)
 8003cf4:	2200      	movs	r2, #0
 8003cf6:	4640      	mov	r0, r8
 8003cf8:	4649      	mov	r1, r9
 8003cfa:	f7fc fc7d 	bl	80005f8 <__aeabi_dmul>
 8003cfe:	e9dd 2302 	ldrd	r2, r3, [sp, #8]
 8003d02:	f7fc feff 	bl	8000b04 <__aeabi_dcmpge>
 8003d06:	9e01      	ldr	r6, [sp, #4]
 8003d08:	4637      	mov	r7, r6
 8003d0a:	2800      	cmp	r0, #0
 8003d0c:	f040 8243 	bne.w	8004196 <_dtoa_r+0x956>
 8003d10:	9d00      	ldr	r5, [sp, #0]
 8003d12:	2331      	movs	r3, #49	; 0x31
 8003d14:	f805 3b01 	strb.w	r3, [r5], #1
 8003d18:	f10a 0a01 	add.w	sl, sl, #1
 8003d1c:	e23f      	b.n	800419e <_dtoa_r+0x95e>
 8003d1e:	07f2      	lsls	r2, r6, #31
 8003d20:	d505      	bpl.n	8003d2e <_dtoa_r+0x4ee>
 8003d22:	e9d7 2300 	ldrd	r2, r3, [r7]
 8003d26:	f7fc fc67 	bl	80005f8 <__aeabi_dmul>
 8003d2a:	3501      	adds	r5, #1
 8003d2c:	2301      	movs	r3, #1
 8003d2e:	1076      	asrs	r6, r6, #1
 8003d30:	3708      	adds	r7, #8
 8003d32:	e76c      	b.n	8003c0e <_dtoa_r+0x3ce>
 8003d34:	2502      	movs	r5, #2
 8003d36:	e76f      	b.n	8003c18 <_dtoa_r+0x3d8>
 8003d38:	9b01      	ldr	r3, [sp, #4]
 8003d3a:	f8cd a01c 	str.w	sl, [sp, #28]
 8003d3e:	930c      	str	r3, [sp, #48]	; 0x30
 8003d40:	e78d      	b.n	8003c5e <_dtoa_r+0x41e>
 8003d42:	9900      	ldr	r1, [sp, #0]
 8003d44:	980c      	ldr	r0, [sp, #48]	; 0x30
 8003d46:	9a0c      	ldr	r2, [sp, #48]	; 0x30
 8003d48:	4b4e      	ldr	r3, [pc, #312]	; (8003e84 <_dtoa_r+0x644>)
 8003d4a:	ed9d 7b02 	vldr	d7, [sp, #8]
 8003d4e:	4401      	add	r1, r0
 8003d50:	9102      	str	r1, [sp, #8]
 8003d52:	9908      	ldr	r1, [sp, #32]
 8003d54:	eeb0 8a47 	vmov.f32	s16, s14
 8003d58:	eef0 8a67 	vmov.f32	s17, s15
 8003d5c:	eb03 03c2 	add.w	r3, r3, r2, lsl #3
 8003d60:	e953 2302 	ldrd	r2, r3, [r3, #-8]
 8003d64:	2900      	cmp	r1, #0
 8003d66:	d045      	beq.n	8003df4 <_dtoa_r+0x5b4>
 8003d68:	494c      	ldr	r1, [pc, #304]	; (8003e9c <_dtoa_r+0x65c>)
 8003d6a:	2000      	movs	r0, #0
 8003d6c:	f7fc fd6e 	bl	800084c <__aeabi_ddiv>
 8003d70:	ec53 2b18 	vmov	r2, r3, d8
 8003d74:	f7fc fa88 	bl	8000288 <__aeabi_dsub>
 8003d78:	9d00      	ldr	r5, [sp, #0]
 8003d7a:	ec41 0b18 	vmov	d8, r0, r1
 8003d7e:	4639      	mov	r1, r7
 8003d80:	4630      	mov	r0, r6
 8003d82:	f7fc fee9 	bl	8000b58 <__aeabi_d2iz>
 8003d86:	900c      	str	r0, [sp, #48]	; 0x30
 8003d88:	f7fc fbcc 	bl	8000524 <__aeabi_i2d>
 8003d8c:	4602      	mov	r2, r0
 8003d8e:	460b      	mov	r3, r1
 8003d90:	4630      	mov	r0, r6
 8003d92:	4639      	mov	r1, r7
 8003d94:	f7fc fa78 	bl	8000288 <__aeabi_dsub>
 8003d98:	9b0c      	ldr	r3, [sp, #48]	; 0x30
 8003d9a:	3330      	adds	r3, #48	; 0x30
 8003d9c:	f805 3b01 	strb.w	r3, [r5], #1
 8003da0:	ec53 2b18 	vmov	r2, r3, d8
 8003da4:	4606      	mov	r6, r0
 8003da6:	460f      	mov	r7, r1
 8003da8:	f7fc fe98 	bl	8000adc <__aeabi_dcmplt>
 8003dac:	2800      	cmp	r0, #0
 8003dae:	d165      	bne.n	8003e7c <_dtoa_r+0x63c>
 8003db0:	4632      	mov	r2, r6
 8003db2:	463b      	mov	r3, r7
 8003db4:	4935      	ldr	r1, [pc, #212]	; (8003e8c <_dtoa_r+0x64c>)
 8003db6:	2000      	movs	r0, #0
 8003db8:	f7fc fa66 	bl	8000288 <__aeabi_dsub>
 8003dbc:	ec53 2b18 	vmov	r2, r3, d8
 8003dc0:	f7fc fe8c 	bl	8000adc <__aeabi_dcmplt>
 8003dc4:	2800      	cmp	r0, #0
 8003dc6:	f040 80b9 	bne.w	8003f3c <_dtoa_r+0x6fc>
 8003dca:	9b02      	ldr	r3, [sp, #8]
 8003dcc:	429d      	cmp	r5, r3
 8003dce:	f43f af75 	beq.w	8003cbc <_dtoa_r+0x47c>
 8003dd2:	4b2f      	ldr	r3, [pc, #188]	; (8003e90 <_dtoa_r+0x650>)
 8003dd4:	ec51 0b18 	vmov	r0, r1, d8
 8003dd8:	2200      	movs	r2, #0
 8003dda:	f7fc fc0d 	bl	80005f8 <__aeabi_dmul>
 8003dde:	4b2c      	ldr	r3, [pc, #176]	; (8003e90 <_dtoa_r+0x650>)
 8003de0:	ec41 0b18 	vmov	d8, r0, r1
 8003de4:	2200      	movs	r2, #0
 8003de6:	4630      	mov	r0, r6
 8003de8:	4639      	mov	r1, r7
 8003dea:	f7fc fc05 	bl	80005f8 <__aeabi_dmul>
 8003dee:	4606      	mov	r6, r0
 8003df0:	460f      	mov	r7, r1
 8003df2:	e7c4      	b.n	8003d7e <_dtoa_r+0x53e>
 8003df4:	ec51 0b17 	vmov	r0, r1, d7
 8003df8:	f7fc fbfe 	bl	80005f8 <__aeabi_dmul>
 8003dfc:	9b02      	ldr	r3, [sp, #8]
 8003dfe:	9d00      	ldr	r5, [sp, #0]
 8003e00:	930c      	str	r3, [sp, #48]	; 0x30
 8003e02:	ec41 0b18 	vmov	d8, r0, r1
 8003e06:	4639      	mov	r1, r7
 8003e08:	4630      	mov	r0, r6
 8003e0a:	f7fc fea5 	bl	8000b58 <__aeabi_d2iz>
 8003e0e:	9011      	str	r0, [sp, #68]	; 0x44
 8003e10:	f7fc fb88 	bl	8000524 <__aeabi_i2d>
 8003e14:	4602      	mov	r2, r0
 8003e16:	460b      	mov	r3, r1
 8003e18:	4630      	mov	r0, r6
 8003e1a:	4639      	mov	r1, r7
 8003e1c:	f7fc fa34 	bl	8000288 <__aeabi_dsub>
 8003e20:	9b11      	ldr	r3, [sp, #68]	; 0x44
 8003e22:	3330      	adds	r3, #48	; 0x30
 8003e24:	f805 3b01 	strb.w	r3, [r5], #1
 8003e28:	9b02      	ldr	r3, [sp, #8]
 8003e2a:	429d      	cmp	r5, r3
 8003e2c:	4606      	mov	r6, r0
 8003e2e:	460f      	mov	r7, r1
 8003e30:	f04f 0200 	mov.w	r2, #0
 8003e34:	d134      	bne.n	8003ea0 <_dtoa_r+0x660>
 8003e36:	4b19      	ldr	r3, [pc, #100]	; (8003e9c <_dtoa_r+0x65c>)
 8003e38:	ec51 0b18 	vmov	r0, r1, d8
 8003e3c:	f7fc fa26 	bl	800028c <__adddf3>
 8003e40:	4602      	mov	r2, r0
 8003e42:	460b      	mov	r3, r1
 8003e44:	4630      	mov	r0, r6
 8003e46:	4639      	mov	r1, r7
 8003e48:	f7fc fe66 	bl	8000b18 <__aeabi_dcmpgt>
 8003e4c:	2800      	cmp	r0, #0
 8003e4e:	d175      	bne.n	8003f3c <_dtoa_r+0x6fc>
 8003e50:	ec53 2b18 	vmov	r2, r3, d8
 8003e54:	4911      	ldr	r1, [pc, #68]	; (8003e9c <_dtoa_r+0x65c>)
 8003e56:	2000      	movs	r0, #0
 8003e58:	f7fc fa16 	bl	8000288 <__aeabi_dsub>
 8003e5c:	4602      	mov	r2, r0
 8003e5e:	460b      	mov	r3, r1
 8003e60:	4630      	mov	r0, r6
 8003e62:	4639      	mov	r1, r7
 8003e64:	f7fc fe3a 	bl	8000adc <__aeabi_dcmplt>
 8003e68:	2800      	cmp	r0, #0
 8003e6a:	f43f af27 	beq.w	8003cbc <_dtoa_r+0x47c>
 8003e6e:	9d0c      	ldr	r5, [sp, #48]	; 0x30
 8003e70:	1e6b      	subs	r3, r5, #1
 8003e72:	930c      	str	r3, [sp, #48]	; 0x30
 8003e74:	f815 3c01 	ldrb.w	r3, [r5, #-1]
 8003e78:	2b30      	cmp	r3, #48	; 0x30
 8003e7a:	d0f8      	beq.n	8003e6e <_dtoa_r+0x62e>
 8003e7c:	f8dd a01c 	ldr.w	sl, [sp, #28]
 8003e80:	e04a      	b.n	8003f18 <_dtoa_r+0x6d8>
 8003e82:	bf00      	nop
 8003e84:	08005d28 	.word	0x08005d28
 8003e88:	08005d00 	.word	0x08005d00
 8003e8c:	3ff00000 	.word	0x3ff00000
 8003e90:	40240000 	.word	0x40240000
 8003e94:	401c0000 	.word	0x401c0000
 8003e98:	40140000 	.word	0x40140000
 8003e9c:	3fe00000 	.word	0x3fe00000
 8003ea0:	4baf      	ldr	r3, [pc, #700]	; (8004160 <_dtoa_r+0x920>)
 8003ea2:	f7fc fba9 	bl	80005f8 <__aeabi_dmul>
 8003ea6:	4606      	mov	r6, r0
 8003ea8:	460f      	mov	r7, r1
 8003eaa:	e7ac      	b.n	8003e06 <_dtoa_r+0x5c6>
 8003eac:	e9dd 6702 	ldrd	r6, r7, [sp, #8]
 8003eb0:	9d00      	ldr	r5, [sp, #0]
 8003eb2:	4642      	mov	r2, r8
 8003eb4:	464b      	mov	r3, r9
 8003eb6:	4630      	mov	r0, r6
 8003eb8:	4639      	mov	r1, r7
 8003eba:	f7fc fcc7 	bl	800084c <__aeabi_ddiv>
 8003ebe:	f7fc fe4b 	bl	8000b58 <__aeabi_d2iz>
 8003ec2:	9002      	str	r0, [sp, #8]
 8003ec4:	f7fc fb2e 	bl	8000524 <__aeabi_i2d>
 8003ec8:	4642      	mov	r2, r8
 8003eca:	464b      	mov	r3, r9
 8003ecc:	f7fc fb94 	bl	80005f8 <__aeabi_dmul>
 8003ed0:	4602      	mov	r2, r0
 8003ed2:	460b      	mov	r3, r1
 8003ed4:	4630      	mov	r0, r6
 8003ed6:	4639      	mov	r1, r7
 8003ed8:	f7fc f9d6 	bl	8000288 <__aeabi_dsub>
 8003edc:	9e02      	ldr	r6, [sp, #8]
 8003ede:	9f01      	ldr	r7, [sp, #4]
 8003ee0:	3630      	adds	r6, #48	; 0x30
 8003ee2:	f805 6b01 	strb.w	r6, [r5], #1
 8003ee6:	9e00      	ldr	r6, [sp, #0]
 8003ee8:	1bae      	subs	r6, r5, r6
 8003eea:	42b7      	cmp	r7, r6
 8003eec:	4602      	mov	r2, r0
 8003eee:	460b      	mov	r3, r1
 8003ef0:	d137      	bne.n	8003f62 <_dtoa_r+0x722>
 8003ef2:	f7fc f9cb 	bl	800028c <__adddf3>
 8003ef6:	4642      	mov	r2, r8
 8003ef8:	464b      	mov	r3, r9
 8003efa:	4606      	mov	r6, r0
 8003efc:	460f      	mov	r7, r1
 8003efe:	f7fc fe0b 	bl	8000b18 <__aeabi_dcmpgt>
 8003f02:	b9c8      	cbnz	r0, 8003f38 <_dtoa_r+0x6f8>
 8003f04:	4642      	mov	r2, r8
 8003f06:	464b      	mov	r3, r9
 8003f08:	4630      	mov	r0, r6
 8003f0a:	4639      	mov	r1, r7
 8003f0c:	f7fc fddc 	bl	8000ac8 <__aeabi_dcmpeq>
 8003f10:	b110      	cbz	r0, 8003f18 <_dtoa_r+0x6d8>
 8003f12:	9b02      	ldr	r3, [sp, #8]
 8003f14:	07d9      	lsls	r1, r3, #31
 8003f16:	d40f      	bmi.n	8003f38 <_dtoa_r+0x6f8>
 8003f18:	4620      	mov	r0, r4
 8003f1a:	4659      	mov	r1, fp
 8003f1c:	f000 fad6 	bl	80044cc <_Bfree>
 8003f20:	2300      	movs	r3, #0
 8003f22:	702b      	strb	r3, [r5, #0]
 8003f24:	9b0f      	ldr	r3, [sp, #60]	; 0x3c
 8003f26:	f10a 0001 	add.w	r0, sl, #1
 8003f2a:	6018      	str	r0, [r3, #0]
 8003f2c:	9b21      	ldr	r3, [sp, #132]	; 0x84
 8003f2e:	2b00      	cmp	r3, #0
 8003f30:	f43f acd8 	beq.w	80038e4 <_dtoa_r+0xa4>
 8003f34:	601d      	str	r5, [r3, #0]
 8003f36:	e4d5      	b.n	80038e4 <_dtoa_r+0xa4>
 8003f38:	f8cd a01c 	str.w	sl, [sp, #28]
 8003f3c:	462b      	mov	r3, r5
 8003f3e:	461d      	mov	r5, r3
 8003f40:	f813 2d01 	ldrb.w	r2, [r3, #-1]!
 8003f44:	2a39      	cmp	r2, #57	; 0x39
 8003f46:	d108      	bne.n	8003f5a <_dtoa_r+0x71a>
 8003f48:	9a00      	ldr	r2, [sp, #0]
 8003f4a:	429a      	cmp	r2, r3
 8003f4c:	d1f7      	bne.n	8003f3e <_dtoa_r+0x6fe>
 8003f4e:	9a07      	ldr	r2, [sp, #28]
 8003f50:	9900      	ldr	r1, [sp, #0]
 8003f52:	3201      	adds	r2, #1
 8003f54:	9207      	str	r2, [sp, #28]
 8003f56:	2230      	movs	r2, #48	; 0x30
 8003f58:	700a      	strb	r2, [r1, #0]
 8003f5a:	781a      	ldrb	r2, [r3, #0]
 8003f5c:	3201      	adds	r2, #1
 8003f5e:	701a      	strb	r2, [r3, #0]
 8003f60:	e78c      	b.n	8003e7c <_dtoa_r+0x63c>
 8003f62:	4b7f      	ldr	r3, [pc, #508]	; (8004160 <_dtoa_r+0x920>)
 8003f64:	2200      	movs	r2, #0
 8003f66:	f7fc fb47 	bl	80005f8 <__aeabi_dmul>
 8003f6a:	2200      	movs	r2, #0
 8003f6c:	2300      	movs	r3, #0
 8003f6e:	4606      	mov	r6, r0
 8003f70:	460f      	mov	r7, r1
 8003f72:	f7fc fda9 	bl	8000ac8 <__aeabi_dcmpeq>
 8003f76:	2800      	cmp	r0, #0
 8003f78:	d09b      	beq.n	8003eb2 <_dtoa_r+0x672>
 8003f7a:	e7cd      	b.n	8003f18 <_dtoa_r+0x6d8>
 8003f7c:	9a08      	ldr	r2, [sp, #32]
 8003f7e:	2a00      	cmp	r2, #0
 8003f80:	f000 80c4 	beq.w	800410c <_dtoa_r+0x8cc>
 8003f84:	9a05      	ldr	r2, [sp, #20]
 8003f86:	2a01      	cmp	r2, #1
 8003f88:	f300 80a8 	bgt.w	80040dc <_dtoa_r+0x89c>
 8003f8c:	9a10      	ldr	r2, [sp, #64]	; 0x40
 8003f8e:	2a00      	cmp	r2, #0
 8003f90:	f000 80a0 	beq.w	80040d4 <_dtoa_r+0x894>
 8003f94:	f203 4333 	addw	r3, r3, #1075	; 0x433
 8003f98:	9e06      	ldr	r6, [sp, #24]
 8003f9a:	4645      	mov	r5, r8
 8003f9c:	9a04      	ldr	r2, [sp, #16]
 8003f9e:	2101      	movs	r1, #1
 8003fa0:	441a      	add	r2, r3
 8003fa2:	4620      	mov	r0, r4
 8003fa4:	4498      	add	r8, r3
 8003fa6:	9204      	str	r2, [sp, #16]
 8003fa8:	f000 fb4c 	bl	8004644 <__i2b>
 8003fac:	4607      	mov	r7, r0
 8003fae:	2d00      	cmp	r5, #0
 8003fb0:	dd0b      	ble.n	8003fca <_dtoa_r+0x78a>
 8003fb2:	9b04      	ldr	r3, [sp, #16]
 8003fb4:	2b00      	cmp	r3, #0
 8003fb6:	dd08      	ble.n	8003fca <_dtoa_r+0x78a>
 8003fb8:	42ab      	cmp	r3, r5
 8003fba:	9a04      	ldr	r2, [sp, #16]
 8003fbc:	bfa8      	it	ge
 8003fbe:	462b      	movge	r3, r5
 8003fc0:	eba8 0803 	sub.w	r8, r8, r3
 8003fc4:	1aed      	subs	r5, r5, r3
 8003fc6:	1ad3      	subs	r3, r2, r3
 8003fc8:	9304      	str	r3, [sp, #16]
 8003fca:	9b06      	ldr	r3, [sp, #24]
 8003fcc:	b1fb      	cbz	r3, 800400e <_dtoa_r+0x7ce>
 8003fce:	9b08      	ldr	r3, [sp, #32]
 8003fd0:	2b00      	cmp	r3, #0
 8003fd2:	f000 809f 	beq.w	8004114 <_dtoa_r+0x8d4>
 8003fd6:	2e00      	cmp	r6, #0
 8003fd8:	dd11      	ble.n	8003ffe <_dtoa_r+0x7be>
 8003fda:	4639      	mov	r1, r7
 8003fdc:	4632      	mov	r2, r6
 8003fde:	4620      	mov	r0, r4
 8003fe0:	f000 fbec 	bl	80047bc <__pow5mult>
 8003fe4:	465a      	mov	r2, fp
 8003fe6:	4601      	mov	r1, r0
 8003fe8:	4607      	mov	r7, r0
 8003fea:	4620      	mov	r0, r4
 8003fec:	f000 fb40 	bl	8004670 <__multiply>
 8003ff0:	4659      	mov	r1, fp
 8003ff2:	9007      	str	r0, [sp, #28]
 8003ff4:	4620      	mov	r0, r4
 8003ff6:	f000 fa69 	bl	80044cc <_Bfree>
 8003ffa:	9b07      	ldr	r3, [sp, #28]
 8003ffc:	469b      	mov	fp, r3
 8003ffe:	9b06      	ldr	r3, [sp, #24]
 8004000:	1b9a      	subs	r2, r3, r6
 8004002:	d004      	beq.n	800400e <_dtoa_r+0x7ce>
 8004004:	4659      	mov	r1, fp
 8004006:	4620      	mov	r0, r4
 8004008:	f000 fbd8 	bl	80047bc <__pow5mult>
 800400c:	4683      	mov	fp, r0
 800400e:	2101      	movs	r1, #1
 8004010:	4620      	mov	r0, r4
 8004012:	f000 fb17 	bl	8004644 <__i2b>
 8004016:	9b0d      	ldr	r3, [sp, #52]	; 0x34
 8004018:	2b00      	cmp	r3, #0
 800401a:	4606      	mov	r6, r0
 800401c:	dd7c      	ble.n	8004118 <_dtoa_r+0x8d8>
 800401e:	461a      	mov	r2, r3
 8004020:	4601      	mov	r1, r0
 8004022:	4620      	mov	r0, r4
 8004024:	f000 fbca 	bl	80047bc <__pow5mult>
 8004028:	9b05      	ldr	r3, [sp, #20]
 800402a:	2b01      	cmp	r3, #1
 800402c:	4606      	mov	r6, r0
 800402e:	dd76      	ble.n	800411e <_dtoa_r+0x8de>
 8004030:	2300      	movs	r3, #0
 8004032:	9306      	str	r3, [sp, #24]
 8004034:	6933      	ldr	r3, [r6, #16]
 8004036:	eb06 0383 	add.w	r3, r6, r3, lsl #2
 800403a:	6918      	ldr	r0, [r3, #16]
 800403c:	f000 fab2 	bl	80045a4 <__hi0bits>
 8004040:	f1c0 0020 	rsb	r0, r0, #32
 8004044:	9b04      	ldr	r3, [sp, #16]
 8004046:	4418      	add	r0, r3
 8004048:	f010 001f 	ands.w	r0, r0, #31
 800404c:	f000 8086 	beq.w	800415c <_dtoa_r+0x91c>
 8004050:	f1c0 0320 	rsb	r3, r0, #32
 8004054:	2b04      	cmp	r3, #4
 8004056:	dd7f      	ble.n	8004158 <_dtoa_r+0x918>
 8004058:	f1c0 001c 	rsb	r0, r0, #28
 800405c:	9b04      	ldr	r3, [sp, #16]
 800405e:	4403      	add	r3, r0
 8004060:	4480      	add	r8, r0
 8004062:	4405      	add	r5, r0
 8004064:	9304      	str	r3, [sp, #16]
 8004066:	f1b8 0f00 	cmp.w	r8, #0
 800406a:	dd05      	ble.n	8004078 <_dtoa_r+0x838>
 800406c:	4659      	mov	r1, fp
 800406e:	4642      	mov	r2, r8
 8004070:	4620      	mov	r0, r4
 8004072:	f000 fbfd 	bl	8004870 <__lshift>
 8004076:	4683      	mov	fp, r0
 8004078:	9b04      	ldr	r3, [sp, #16]
 800407a:	2b00      	cmp	r3, #0
 800407c:	dd05      	ble.n	800408a <_dtoa_r+0x84a>
 800407e:	4631      	mov	r1, r6
 8004080:	461a      	mov	r2, r3
 8004082:	4620      	mov	r0, r4
 8004084:	f000 fbf4 	bl	8004870 <__lshift>
 8004088:	4606      	mov	r6, r0
 800408a:	9b0e      	ldr	r3, [sp, #56]	; 0x38
 800408c:	2b00      	cmp	r3, #0
 800408e:	d069      	beq.n	8004164 <_dtoa_r+0x924>
 8004090:	4631      	mov	r1, r6
 8004092:	4658      	mov	r0, fp
 8004094:	f000 fc58 	bl	8004948 <__mcmp>
 8004098:	2800      	cmp	r0, #0
 800409a:	da63      	bge.n	8004164 <_dtoa_r+0x924>
 800409c:	2300      	movs	r3, #0
 800409e:	4659      	mov	r1, fp
 80040a0:	220a      	movs	r2, #10
 80040a2:	4620      	mov	r0, r4
 80040a4:	f000 fa34 	bl	8004510 <__multadd>
 80040a8:	9b08      	ldr	r3, [sp, #32]
 80040aa:	f10a 3aff 	add.w	sl, sl, #4294967295
 80040ae:	4683      	mov	fp, r0
 80040b0:	2b00      	cmp	r3, #0
 80040b2:	f000 818f 	beq.w	80043d4 <_dtoa_r+0xb94>
 80040b6:	4639      	mov	r1, r7
 80040b8:	2300      	movs	r3, #0
 80040ba:	220a      	movs	r2, #10
 80040bc:	4620      	mov	r0, r4
 80040be:	f000 fa27 	bl	8004510 <__multadd>
 80040c2:	f1b9 0f00 	cmp.w	r9, #0
 80040c6:	4607      	mov	r7, r0
 80040c8:	f300 808e 	bgt.w	80041e8 <_dtoa_r+0x9a8>
 80040cc:	9b05      	ldr	r3, [sp, #20]
 80040ce:	2b02      	cmp	r3, #2
 80040d0:	dc50      	bgt.n	8004174 <_dtoa_r+0x934>
 80040d2:	e089      	b.n	80041e8 <_dtoa_r+0x9a8>
 80040d4:	9b12      	ldr	r3, [sp, #72]	; 0x48
 80040d6:	f1c3 0336 	rsb	r3, r3, #54	; 0x36
 80040da:	e75d      	b.n	8003f98 <_dtoa_r+0x758>
 80040dc:	9b01      	ldr	r3, [sp, #4]
 80040de:	1e5e      	subs	r6, r3, #1
 80040e0:	9b06      	ldr	r3, [sp, #24]
 80040e2:	42b3      	cmp	r3, r6
 80040e4:	bfbf      	itttt	lt
 80040e6:	9b06      	ldrlt	r3, [sp, #24]
 80040e8:	9606      	strlt	r6, [sp, #24]
 80040ea:	1af2      	sublt	r2, r6, r3
 80040ec:	9b0d      	ldrlt	r3, [sp, #52]	; 0x34
 80040ee:	bfb6      	itet	lt
 80040f0:	189b      	addlt	r3, r3, r2
 80040f2:	1b9e      	subge	r6, r3, r6
 80040f4:	930d      	strlt	r3, [sp, #52]	; 0x34
 80040f6:	9b01      	ldr	r3, [sp, #4]
 80040f8:	bfb8      	it	lt
 80040fa:	2600      	movlt	r6, #0
 80040fc:	2b00      	cmp	r3, #0
 80040fe:	bfb5      	itete	lt
 8004100:	eba8 0503 	sublt.w	r5, r8, r3
 8004104:	9b01      	ldrge	r3, [sp, #4]
 8004106:	2300      	movlt	r3, #0
 8004108:	4645      	movge	r5, r8
 800410a:	e747      	b.n	8003f9c <_dtoa_r+0x75c>
 800410c:	9e06      	ldr	r6, [sp, #24]
 800410e:	9f08      	ldr	r7, [sp, #32]
 8004110:	4645      	mov	r5, r8
 8004112:	e74c      	b.n	8003fae <_dtoa_r+0x76e>
 8004114:	9a06      	ldr	r2, [sp, #24]
 8004116:	e775      	b.n	8004004 <_dtoa_r+0x7c4>
 8004118:	9b05      	ldr	r3, [sp, #20]
 800411a:	2b01      	cmp	r3, #1
 800411c:	dc18      	bgt.n	8004150 <_dtoa_r+0x910>
 800411e:	9b02      	ldr	r3, [sp, #8]
 8004120:	b9b3      	cbnz	r3, 8004150 <_dtoa_r+0x910>
 8004122:	9b03      	ldr	r3, [sp, #12]
 8004124:	f3c3 0313 	ubfx	r3, r3, #0, #20
 8004128:	b9a3      	cbnz	r3, 8004154 <_dtoa_r+0x914>
 800412a:	9b03      	ldr	r3, [sp, #12]
 800412c:	f023 4300 	bic.w	r3, r3, #2147483648	; 0x80000000
 8004130:	0d1b      	lsrs	r3, r3, #20
 8004132:	051b      	lsls	r3, r3, #20
 8004134:	b12b      	cbz	r3, 8004142 <_dtoa_r+0x902>
 8004136:	9b04      	ldr	r3, [sp, #16]
 8004138:	3301      	adds	r3, #1
 800413a:	9304      	str	r3, [sp, #16]
 800413c:	f108 0801 	add.w	r8, r8, #1
 8004140:	2301      	movs	r3, #1
 8004142:	9306      	str	r3, [sp, #24]
 8004144:	9b0d      	ldr	r3, [sp, #52]	; 0x34
 8004146:	2b00      	cmp	r3, #0
 8004148:	f47f af74 	bne.w	8004034 <_dtoa_r+0x7f4>
 800414c:	2001      	movs	r0, #1
 800414e:	e779      	b.n	8004044 <_dtoa_r+0x804>
 8004150:	2300      	movs	r3, #0
 8004152:	e7f6      	b.n	8004142 <_dtoa_r+0x902>
 8004154:	9b02      	ldr	r3, [sp, #8]
 8004156:	e7f4      	b.n	8004142 <_dtoa_r+0x902>
 8004158:	d085      	beq.n	8004066 <_dtoa_r+0x826>
 800415a:	4618      	mov	r0, r3
 800415c:	301c      	adds	r0, #28
 800415e:	e77d      	b.n	800405c <_dtoa_r+0x81c>
 8004160:	40240000 	.word	0x40240000
 8004164:	9b01      	ldr	r3, [sp, #4]
 8004166:	2b00      	cmp	r3, #0
 8004168:	dc38      	bgt.n	80041dc <_dtoa_r+0x99c>
 800416a:	9b05      	ldr	r3, [sp, #20]
 800416c:	2b02      	cmp	r3, #2
 800416e:	dd35      	ble.n	80041dc <_dtoa_r+0x99c>
 8004170:	f8dd 9004 	ldr.w	r9, [sp, #4]
 8004174:	f1b9 0f00 	cmp.w	r9, #0
 8004178:	d10d      	bne.n	8004196 <_dtoa_r+0x956>
 800417a:	4631      	mov	r1, r6
 800417c:	464b      	mov	r3, r9
 800417e:	2205      	movs	r2, #5
 8004180:	4620      	mov	r0, r4
 8004182:	f000 f9c5 	bl	8004510 <__multadd>
 8004186:	4601      	mov	r1, r0
 8004188:	4606      	mov	r6, r0
 800418a:	4658      	mov	r0, fp
 800418c:	f000 fbdc 	bl	8004948 <__mcmp>
 8004190:	2800      	cmp	r0, #0
 8004192:	f73f adbd 	bgt.w	8003d10 <_dtoa_r+0x4d0>
 8004196:	9b09      	ldr	r3, [sp, #36]	; 0x24
 8004198:	9d00      	ldr	r5, [sp, #0]
 800419a:	ea6f 0a03 	mvn.w	sl, r3
 800419e:	f04f 0800 	mov.w	r8, #0
 80041a2:	4631      	mov	r1, r6
 80041a4:	4620      	mov	r0, r4
 80041a6:	f000 f991 	bl	80044cc <_Bfree>
 80041aa:	2f00      	cmp	r7, #0
 80041ac:	f43f aeb4 	beq.w	8003f18 <_dtoa_r+0x6d8>
 80041b0:	f1b8 0f00 	cmp.w	r8, #0
 80041b4:	d005      	beq.n	80041c2 <_dtoa_r+0x982>
 80041b6:	45b8      	cmp	r8, r7
 80041b8:	d003      	beq.n	80041c2 <_dtoa_r+0x982>
 80041ba:	4641      	mov	r1, r8
 80041bc:	4620      	mov	r0, r4
 80041be:	f000 f985 	bl	80044cc <_Bfree>
 80041c2:	4639      	mov	r1, r7
 80041c4:	4620      	mov	r0, r4
 80041c6:	f000 f981 	bl	80044cc <_Bfree>
 80041ca:	e6a5      	b.n	8003f18 <_dtoa_r+0x6d8>
 80041cc:	2600      	movs	r6, #0
 80041ce:	4637      	mov	r7, r6
 80041d0:	e7e1      	b.n	8004196 <_dtoa_r+0x956>
 80041d2:	9e0c      	ldr	r6, [sp, #48]	; 0x30
 80041d4:	f8dd a01c 	ldr.w	sl, [sp, #28]
 80041d8:	4637      	mov	r7, r6
 80041da:	e599      	b.n	8003d10 <_dtoa_r+0x4d0>
 80041dc:	9b08      	ldr	r3, [sp, #32]
 80041de:	f8dd 9004 	ldr.w	r9, [sp, #4]
 80041e2:	2b00      	cmp	r3, #0
 80041e4:	f000 80fd 	beq.w	80043e2 <_dtoa_r+0xba2>
 80041e8:	2d00      	cmp	r5, #0
 80041ea:	dd05      	ble.n	80041f8 <_dtoa_r+0x9b8>
 80041ec:	4639      	mov	r1, r7
 80041ee:	462a      	mov	r2, r5
 80041f0:	4620      	mov	r0, r4
 80041f2:	f000 fb3d 	bl	8004870 <__lshift>
 80041f6:	4607      	mov	r7, r0
 80041f8:	9b06      	ldr	r3, [sp, #24]
 80041fa:	2b00      	cmp	r3, #0
 80041fc:	d05c      	beq.n	80042b8 <_dtoa_r+0xa78>
 80041fe:	6879      	ldr	r1, [r7, #4]
 8004200:	4620      	mov	r0, r4
 8004202:	f000 f923 	bl	800444c <_Balloc>
 8004206:	4605      	mov	r5, r0
 8004208:	b928      	cbnz	r0, 8004216 <_dtoa_r+0x9d6>
 800420a:	4b80      	ldr	r3, [pc, #512]	; (800440c <_dtoa_r+0xbcc>)
 800420c:	4602      	mov	r2, r0
 800420e:	f240 21ea 	movw	r1, #746	; 0x2ea
 8004212:	f7ff bb2e 	b.w	8003872 <_dtoa_r+0x32>
 8004216:	693a      	ldr	r2, [r7, #16]
 8004218:	3202      	adds	r2, #2
 800421a:	0092      	lsls	r2, r2, #2
 800421c:	f107 010c 	add.w	r1, r7, #12
 8004220:	300c      	adds	r0, #12
 8004222:	f000 f905 	bl	8004430 <memcpy>
 8004226:	2201      	movs	r2, #1
 8004228:	4629      	mov	r1, r5
 800422a:	4620      	mov	r0, r4
 800422c:	f000 fb20 	bl	8004870 <__lshift>
 8004230:	9b00      	ldr	r3, [sp, #0]
 8004232:	3301      	adds	r3, #1
 8004234:	9301      	str	r3, [sp, #4]
 8004236:	9b00      	ldr	r3, [sp, #0]
 8004238:	444b      	add	r3, r9
 800423a:	9307      	str	r3, [sp, #28]
 800423c:	9b02      	ldr	r3, [sp, #8]
 800423e:	f003 0301 	and.w	r3, r3, #1
 8004242:	46b8      	mov	r8, r7
 8004244:	9306      	str	r3, [sp, #24]
 8004246:	4607      	mov	r7, r0
 8004248:	9b01      	ldr	r3, [sp, #4]
 800424a:	4631      	mov	r1, r6
 800424c:	3b01      	subs	r3, #1
 800424e:	4658      	mov	r0, fp
 8004250:	9302      	str	r3, [sp, #8]
 8004252:	f7ff fa67 	bl	8003724 <quorem>
 8004256:	4603      	mov	r3, r0
 8004258:	3330      	adds	r3, #48	; 0x30
 800425a:	9004      	str	r0, [sp, #16]
 800425c:	4641      	mov	r1, r8
 800425e:	4658      	mov	r0, fp
 8004260:	9308      	str	r3, [sp, #32]
 8004262:	f000 fb71 	bl	8004948 <__mcmp>
 8004266:	463a      	mov	r2, r7
 8004268:	4681      	mov	r9, r0
 800426a:	4631      	mov	r1, r6
 800426c:	4620      	mov	r0, r4
 800426e:	f000 fb87 	bl	8004980 <__mdiff>
 8004272:	68c2      	ldr	r2, [r0, #12]
 8004274:	9b08      	ldr	r3, [sp, #32]
 8004276:	4605      	mov	r5, r0
 8004278:	bb02      	cbnz	r2, 80042bc <_dtoa_r+0xa7c>
 800427a:	4601      	mov	r1, r0
 800427c:	4658      	mov	r0, fp
 800427e:	f000 fb63 	bl	8004948 <__mcmp>
 8004282:	9b08      	ldr	r3, [sp, #32]
 8004284:	4602      	mov	r2, r0
 8004286:	4629      	mov	r1, r5
 8004288:	4620      	mov	r0, r4
 800428a:	e9cd 3208 	strd	r3, r2, [sp, #32]
 800428e:	f000 f91d 	bl	80044cc <_Bfree>
 8004292:	9b05      	ldr	r3, [sp, #20]
 8004294:	9a09      	ldr	r2, [sp, #36]	; 0x24
 8004296:	9d01      	ldr	r5, [sp, #4]
 8004298:	ea43 0102 	orr.w	r1, r3, r2
 800429c:	9b06      	ldr	r3, [sp, #24]
 800429e:	430b      	orrs	r3, r1
 80042a0:	9b08      	ldr	r3, [sp, #32]
 80042a2:	d10d      	bne.n	80042c0 <_dtoa_r+0xa80>
 80042a4:	2b39      	cmp	r3, #57	; 0x39
 80042a6:	d029      	beq.n	80042fc <_dtoa_r+0xabc>
 80042a8:	f1b9 0f00 	cmp.w	r9, #0
 80042ac:	dd01      	ble.n	80042b2 <_dtoa_r+0xa72>
 80042ae:	9b04      	ldr	r3, [sp, #16]
 80042b0:	3331      	adds	r3, #49	; 0x31
 80042b2:	9a02      	ldr	r2, [sp, #8]
 80042b4:	7013      	strb	r3, [r2, #0]
 80042b6:	e774      	b.n	80041a2 <_dtoa_r+0x962>
 80042b8:	4638      	mov	r0, r7
 80042ba:	e7b9      	b.n	8004230 <_dtoa_r+0x9f0>
 80042bc:	2201      	movs	r2, #1
 80042be:	e7e2      	b.n	8004286 <_dtoa_r+0xa46>
 80042c0:	f1b9 0f00 	cmp.w	r9, #0
 80042c4:	db06      	blt.n	80042d4 <_dtoa_r+0xa94>
 80042c6:	9905      	ldr	r1, [sp, #20]
 80042c8:	ea41 0909 	orr.w	r9, r1, r9
 80042cc:	9906      	ldr	r1, [sp, #24]
 80042ce:	ea59 0101 	orrs.w	r1, r9, r1
 80042d2:	d120      	bne.n	8004316 <_dtoa_r+0xad6>
 80042d4:	2a00      	cmp	r2, #0
 80042d6:	ddec      	ble.n	80042b2 <_dtoa_r+0xa72>
 80042d8:	4659      	mov	r1, fp
 80042da:	2201      	movs	r2, #1
 80042dc:	4620      	mov	r0, r4
 80042de:	9301      	str	r3, [sp, #4]
 80042e0:	f000 fac6 	bl	8004870 <__lshift>
 80042e4:	4631      	mov	r1, r6
 80042e6:	4683      	mov	fp, r0
 80042e8:	f000 fb2e 	bl	8004948 <__mcmp>
 80042ec:	2800      	cmp	r0, #0
 80042ee:	9b01      	ldr	r3, [sp, #4]
 80042f0:	dc02      	bgt.n	80042f8 <_dtoa_r+0xab8>
 80042f2:	d1de      	bne.n	80042b2 <_dtoa_r+0xa72>
 80042f4:	07da      	lsls	r2, r3, #31
 80042f6:	d5dc      	bpl.n	80042b2 <_dtoa_r+0xa72>
 80042f8:	2b39      	cmp	r3, #57	; 0x39
 80042fa:	d1d8      	bne.n	80042ae <_dtoa_r+0xa6e>
 80042fc:	9a02      	ldr	r2, [sp, #8]
 80042fe:	2339      	movs	r3, #57	; 0x39
 8004300:	7013      	strb	r3, [r2, #0]
 8004302:	462b      	mov	r3, r5
 8004304:	461d      	mov	r5, r3
 8004306:	3b01      	subs	r3, #1
 8004308:	f815 2c01 	ldrb.w	r2, [r5, #-1]
 800430c:	2a39      	cmp	r2, #57	; 0x39
 800430e:	d050      	beq.n	80043b2 <_dtoa_r+0xb72>
 8004310:	3201      	adds	r2, #1
 8004312:	701a      	strb	r2, [r3, #0]
 8004314:	e745      	b.n	80041a2 <_dtoa_r+0x962>
 8004316:	2a00      	cmp	r2, #0
 8004318:	dd03      	ble.n	8004322 <_dtoa_r+0xae2>
 800431a:	2b39      	cmp	r3, #57	; 0x39
 800431c:	d0ee      	beq.n	80042fc <_dtoa_r+0xabc>
 800431e:	3301      	adds	r3, #1
 8004320:	e7c7      	b.n	80042b2 <_dtoa_r+0xa72>
 8004322:	9a01      	ldr	r2, [sp, #4]
 8004324:	9907      	ldr	r1, [sp, #28]
 8004326:	f802 3c01 	strb.w	r3, [r2, #-1]
 800432a:	428a      	cmp	r2, r1
 800432c:	d02a      	beq.n	8004384 <_dtoa_r+0xb44>
 800432e:	4659      	mov	r1, fp
 8004330:	2300      	movs	r3, #0
 8004332:	220a      	movs	r2, #10
 8004334:	4620      	mov	r0, r4
 8004336:	f000 f8eb 	bl	8004510 <__multadd>
 800433a:	45b8      	cmp	r8, r7
 800433c:	4683      	mov	fp, r0
 800433e:	f04f 0300 	mov.w	r3, #0
 8004342:	f04f 020a 	mov.w	r2, #10
 8004346:	4641      	mov	r1, r8
 8004348:	4620      	mov	r0, r4
 800434a:	d107      	bne.n	800435c <_dtoa_r+0xb1c>
 800434c:	f000 f8e0 	bl	8004510 <__multadd>
 8004350:	4680      	mov	r8, r0
 8004352:	4607      	mov	r7, r0
 8004354:	9b01      	ldr	r3, [sp, #4]
 8004356:	3301      	adds	r3, #1
 8004358:	9301      	str	r3, [sp, #4]
 800435a:	e775      	b.n	8004248 <_dtoa_r+0xa08>
 800435c:	f000 f8d8 	bl	8004510 <__multadd>
 8004360:	4639      	mov	r1, r7
 8004362:	4680      	mov	r8, r0
 8004364:	2300      	movs	r3, #0
 8004366:	220a      	movs	r2, #10
 8004368:	4620      	mov	r0, r4
 800436a:	f000 f8d1 	bl	8004510 <__multadd>
 800436e:	4607      	mov	r7, r0
 8004370:	e7f0      	b.n	8004354 <_dtoa_r+0xb14>
 8004372:	f1b9 0f00 	cmp.w	r9, #0
 8004376:	9a00      	ldr	r2, [sp, #0]
 8004378:	bfcc      	ite	gt
 800437a:	464d      	movgt	r5, r9
 800437c:	2501      	movle	r5, #1
 800437e:	4415      	add	r5, r2
 8004380:	f04f 0800 	mov.w	r8, #0
 8004384:	4659      	mov	r1, fp
 8004386:	2201      	movs	r2, #1
 8004388:	4620      	mov	r0, r4
 800438a:	9301      	str	r3, [sp, #4]
 800438c:	f000 fa70 	bl	8004870 <__lshift>
 8004390:	4631      	mov	r1, r6
 8004392:	4683      	mov	fp, r0
 8004394:	f000 fad8 	bl	8004948 <__mcmp>
 8004398:	2800      	cmp	r0, #0
 800439a:	dcb2      	bgt.n	8004302 <_dtoa_r+0xac2>
 800439c:	d102      	bne.n	80043a4 <_dtoa_r+0xb64>
 800439e:	9b01      	ldr	r3, [sp, #4]
 80043a0:	07db      	lsls	r3, r3, #31
 80043a2:	d4ae      	bmi.n	8004302 <_dtoa_r+0xac2>
 80043a4:	462b      	mov	r3, r5
 80043a6:	461d      	mov	r5, r3
 80043a8:	f813 2d01 	ldrb.w	r2, [r3, #-1]!
 80043ac:	2a30      	cmp	r2, #48	; 0x30
 80043ae:	d0fa      	beq.n	80043a6 <_dtoa_r+0xb66>
 80043b0:	e6f7      	b.n	80041a2 <_dtoa_r+0x962>
 80043b2:	9a00      	ldr	r2, [sp, #0]
 80043b4:	429a      	cmp	r2, r3
 80043b6:	d1a5      	bne.n	8004304 <_dtoa_r+0xac4>
 80043b8:	f10a 0a01 	add.w	sl, sl, #1
 80043bc:	2331      	movs	r3, #49	; 0x31
 80043be:	e779      	b.n	80042b4 <_dtoa_r+0xa74>
 80043c0:	4b13      	ldr	r3, [pc, #76]	; (8004410 <_dtoa_r+0xbd0>)
 80043c2:	f7ff baaf 	b.w	8003924 <_dtoa_r+0xe4>
 80043c6:	9b21      	ldr	r3, [sp, #132]	; 0x84
 80043c8:	2b00      	cmp	r3, #0
 80043ca:	f47f aa86 	bne.w	80038da <_dtoa_r+0x9a>
 80043ce:	4b11      	ldr	r3, [pc, #68]	; (8004414 <_dtoa_r+0xbd4>)
 80043d0:	f7ff baa8 	b.w	8003924 <_dtoa_r+0xe4>
 80043d4:	f1b9 0f00 	cmp.w	r9, #0
 80043d8:	dc03      	bgt.n	80043e2 <_dtoa_r+0xba2>
 80043da:	9b05      	ldr	r3, [sp, #20]
 80043dc:	2b02      	cmp	r3, #2
 80043de:	f73f aec9 	bgt.w	8004174 <_dtoa_r+0x934>
 80043e2:	9d00      	ldr	r5, [sp, #0]
 80043e4:	4631      	mov	r1, r6
 80043e6:	4658      	mov	r0, fp
 80043e8:	f7ff f99c 	bl	8003724 <quorem>
 80043ec:	f100 0330 	add.w	r3, r0, #48	; 0x30
 80043f0:	f805 3b01 	strb.w	r3, [r5], #1
 80043f4:	9a00      	ldr	r2, [sp, #0]
 80043f6:	1aaa      	subs	r2, r5, r2
 80043f8:	4591      	cmp	r9, r2
 80043fa:	ddba      	ble.n	8004372 <_dtoa_r+0xb32>
 80043fc:	4659      	mov	r1, fp
 80043fe:	2300      	movs	r3, #0
 8004400:	220a      	movs	r2, #10
 8004402:	4620      	mov	r0, r4
 8004404:	f000 f884 	bl	8004510 <__multadd>
 8004408:	4683      	mov	fp, r0
 800440a:	e7eb      	b.n	80043e4 <_dtoa_r+0xba4>
 800440c:	08005c8b 	.word	0x08005c8b
 8004410:	08005be4 	.word	0x08005be4
 8004414:	08005c08 	.word	0x08005c08

08004418 <_localeconv_r>:
 8004418:	4800      	ldr	r0, [pc, #0]	; (800441c <_localeconv_r+0x4>)
 800441a:	4770      	bx	lr
 800441c:	20000160 	.word	0x20000160

08004420 <malloc>:
 8004420:	4b02      	ldr	r3, [pc, #8]	; (800442c <malloc+0xc>)
 8004422:	4601      	mov	r1, r0
 8004424:	6818      	ldr	r0, [r3, #0]
 8004426:	f000 bbef 	b.w	8004c08 <_malloc_r>
 800442a:	bf00      	nop
 800442c:	2000000c 	.word	0x2000000c

08004430 <memcpy>:
 8004430:	440a      	add	r2, r1
 8004432:	4291      	cmp	r1, r2
 8004434:	f100 33ff 	add.w	r3, r0, #4294967295
 8004438:	d100      	bne.n	800443c <memcpy+0xc>
 800443a:	4770      	bx	lr
 800443c:	b510      	push	{r4, lr}
 800443e:	f811 4b01 	ldrb.w	r4, [r1], #1
 8004442:	f803 4f01 	strb.w	r4, [r3, #1]!
 8004446:	4291      	cmp	r1, r2
 8004448:	d1f9      	bne.n	800443e <memcpy+0xe>
 800444a:	bd10      	pop	{r4, pc}

0800444c <_Balloc>:
 800444c:	b570      	push	{r4, r5, r6, lr}
 800444e:	6a46      	ldr	r6, [r0, #36]	; 0x24
 8004450:	4604      	mov	r4, r0
 8004452:	460d      	mov	r5, r1
 8004454:	b976      	cbnz	r6, 8004474 <_Balloc+0x28>
 8004456:	2010      	movs	r0, #16
 8004458:	f7ff ffe2 	bl	8004420 <malloc>
 800445c:	4602      	mov	r2, r0
 800445e:	6260      	str	r0, [r4, #36]	; 0x24
 8004460:	b920      	cbnz	r0, 800446c <_Balloc+0x20>
 8004462:	4b18      	ldr	r3, [pc, #96]	; (80044c4 <_Balloc+0x78>)
 8004464:	4818      	ldr	r0, [pc, #96]	; (80044c8 <_Balloc+0x7c>)
 8004466:	2166      	movs	r1, #102	; 0x66
 8004468:	f000 fd94 	bl	8004f94 <__assert_func>
 800446c:	e9c0 6601 	strd	r6, r6, [r0, #4]
 8004470:	6006      	str	r6, [r0, #0]
 8004472:	60c6      	str	r6, [r0, #12]
 8004474:	6a66      	ldr	r6, [r4, #36]	; 0x24
 8004476:	68f3      	ldr	r3, [r6, #12]
 8004478:	b183      	cbz	r3, 800449c <_Balloc+0x50>
 800447a:	6a63      	ldr	r3, [r4, #36]	; 0x24
 800447c:	68db      	ldr	r3, [r3, #12]
 800447e:	f853 0025 	ldr.w	r0, [r3, r5, lsl #2]
 8004482:	b9b8      	cbnz	r0, 80044b4 <_Balloc+0x68>
 8004484:	2101      	movs	r1, #1
 8004486:	fa01 f605 	lsl.w	r6, r1, r5
 800448a:	1d72      	adds	r2, r6, #5
 800448c:	0092      	lsls	r2, r2, #2
 800448e:	4620      	mov	r0, r4
 8004490:	f000 fb5a 	bl	8004b48 <_calloc_r>
 8004494:	b160      	cbz	r0, 80044b0 <_Balloc+0x64>
 8004496:	e9c0 5601 	strd	r5, r6, [r0, #4]
 800449a:	e00e      	b.n	80044ba <_Balloc+0x6e>
 800449c:	2221      	movs	r2, #33	; 0x21
 800449e:	2104      	movs	r1, #4
 80044a0:	4620      	mov	r0, r4
 80044a2:	f000 fb51 	bl	8004b48 <_calloc_r>
 80044a6:	6a63      	ldr	r3, [r4, #36]	; 0x24
 80044a8:	60f0      	str	r0, [r6, #12]
 80044aa:	68db      	ldr	r3, [r3, #12]
 80044ac:	2b00      	cmp	r3, #0
 80044ae:	d1e4      	bne.n	800447a <_Balloc+0x2e>
 80044b0:	2000      	movs	r0, #0
 80044b2:	bd70      	pop	{r4, r5, r6, pc}
 80044b4:	6802      	ldr	r2, [r0, #0]
 80044b6:	f843 2025 	str.w	r2, [r3, r5, lsl #2]
 80044ba:	2300      	movs	r3, #0
 80044bc:	e9c0 3303 	strd	r3, r3, [r0, #12]
 80044c0:	e7f7      	b.n	80044b2 <_Balloc+0x66>
 80044c2:	bf00      	nop
 80044c4:	08005c15 	.word	0x08005c15
 80044c8:	08005c9c 	.word	0x08005c9c

080044cc <_Bfree>:
 80044cc:	b570      	push	{r4, r5, r6, lr}
 80044ce:	6a46      	ldr	r6, [r0, #36]	; 0x24
 80044d0:	4605      	mov	r5, r0
 80044d2:	460c      	mov	r4, r1
 80044d4:	b976      	cbnz	r6, 80044f4 <_Bfree+0x28>
 80044d6:	2010      	movs	r0, #16
 80044d8:	f7ff ffa2 	bl	8004420 <malloc>
 80044dc:	4602      	mov	r2, r0
 80044de:	6268      	str	r0, [r5, #36]	; 0x24
 80044e0:	b920      	cbnz	r0, 80044ec <_Bfree+0x20>
 80044e2:	4b09      	ldr	r3, [pc, #36]	; (8004508 <_Bfree+0x3c>)
 80044e4:	4809      	ldr	r0, [pc, #36]	; (800450c <_Bfree+0x40>)
 80044e6:	218a      	movs	r1, #138	; 0x8a
 80044e8:	f000 fd54 	bl	8004f94 <__assert_func>
 80044ec:	e9c0 6601 	strd	r6, r6, [r0, #4]
 80044f0:	6006      	str	r6, [r0, #0]
 80044f2:	60c6      	str	r6, [r0, #12]
 80044f4:	b13c      	cbz	r4, 8004506 <_Bfree+0x3a>
 80044f6:	6a6b      	ldr	r3, [r5, #36]	; 0x24
 80044f8:	6862      	ldr	r2, [r4, #4]
 80044fa:	68db      	ldr	r3, [r3, #12]
 80044fc:	f853 1022 	ldr.w	r1, [r3, r2, lsl #2]
 8004500:	6021      	str	r1, [r4, #0]
 8004502:	f843 4022 	str.w	r4, [r3, r2, lsl #2]
 8004506:	bd70      	pop	{r4, r5, r6, pc}
 8004508:	08005c15 	.word	0x08005c15
 800450c:	08005c9c 	.word	0x08005c9c

08004510 <__multadd>:
 8004510:	e92d 41f0 	stmdb	sp!, {r4, r5, r6, r7, r8, lr}
 8004514:	690e      	ldr	r6, [r1, #16]
 8004516:	4607      	mov	r7, r0
 8004518:	4698      	mov	r8, r3
 800451a:	460c      	mov	r4, r1
 800451c:	f101 0014 	add.w	r0, r1, #20
 8004520:	2300      	movs	r3, #0
 8004522:	6805      	ldr	r5, [r0, #0]
 8004524:	b2a9      	uxth	r1, r5
 8004526:	fb02 8101 	mla	r1, r2, r1, r8
 800452a:	ea4f 4c11 	mov.w	ip, r1, lsr #16
 800452e:	0c2d      	lsrs	r5, r5, #16
 8004530:	fb02 c505 	mla	r5, r2, r5, ip
 8004534:	b289      	uxth	r1, r1
 8004536:	3301      	adds	r3, #1
 8004538:	eb01 4105 	add.w	r1, r1, r5, lsl #16
 800453c:	429e      	cmp	r6, r3
 800453e:	f840 1b04 	str.w	r1, [r0], #4
 8004542:	ea4f 4815 	mov.w	r8, r5, lsr #16
 8004546:	dcec      	bgt.n	8004522 <__multadd+0x12>
 8004548:	f1b8 0f00 	cmp.w	r8, #0
 800454c:	d022      	beq.n	8004594 <__multadd+0x84>
 800454e:	68a3      	ldr	r3, [r4, #8]
 8004550:	42b3      	cmp	r3, r6
 8004552:	dc19      	bgt.n	8004588 <__multadd+0x78>
 8004554:	6861      	ldr	r1, [r4, #4]
 8004556:	4638      	mov	r0, r7
 8004558:	3101      	adds	r1, #1
 800455a:	f7ff ff77 	bl	800444c <_Balloc>
 800455e:	4605      	mov	r5, r0
 8004560:	b928      	cbnz	r0, 800456e <__multadd+0x5e>
 8004562:	4602      	mov	r2, r0
 8004564:	4b0d      	ldr	r3, [pc, #52]	; (800459c <__multadd+0x8c>)
 8004566:	480e      	ldr	r0, [pc, #56]	; (80045a0 <__multadd+0x90>)
 8004568:	21b5      	movs	r1, #181	; 0xb5
 800456a:	f000 fd13 	bl	8004f94 <__assert_func>
 800456e:	6922      	ldr	r2, [r4, #16]
 8004570:	3202      	adds	r2, #2
 8004572:	f104 010c 	add.w	r1, r4, #12
 8004576:	0092      	lsls	r2, r2, #2
 8004578:	300c      	adds	r0, #12
 800457a:	f7ff ff59 	bl	8004430 <memcpy>
 800457e:	4621      	mov	r1, r4
 8004580:	4638      	mov	r0, r7
 8004582:	f7ff ffa3 	bl	80044cc <_Bfree>
 8004586:	462c      	mov	r4, r5
 8004588:	eb04 0386 	add.w	r3, r4, r6, lsl #2
 800458c:	3601      	adds	r6, #1
 800458e:	f8c3 8014 	str.w	r8, [r3, #20]
 8004592:	6126      	str	r6, [r4, #16]
 8004594:	4620      	mov	r0, r4
 8004596:	e8bd 81f0 	ldmia.w	sp!, {r4, r5, r6, r7, r8, pc}
 800459a:	bf00      	nop
 800459c:	08005c8b 	.word	0x08005c8b
 80045a0:	08005c9c 	.word	0x08005c9c

080045a4 <__hi0bits>:
 80045a4:	0c03      	lsrs	r3, r0, #16
 80045a6:	041b      	lsls	r3, r3, #16
 80045a8:	b9d3      	cbnz	r3, 80045e0 <__hi0bits+0x3c>
 80045aa:	0400      	lsls	r0, r0, #16
 80045ac:	2310      	movs	r3, #16
 80045ae:	f010 4f7f 	tst.w	r0, #4278190080	; 0xff000000
 80045b2:	bf04      	itt	eq
 80045b4:	0200      	lsleq	r0, r0, #8
 80045b6:	3308      	addeq	r3, #8
 80045b8:	f010 4f70 	tst.w	r0, #4026531840	; 0xf0000000
 80045bc:	bf04      	itt	eq
 80045be:	0100      	lsleq	r0, r0, #4
 80045c0:	3304      	addeq	r3, #4
 80045c2:	f010 4f40 	tst.w	r0, #3221225472	; 0xc0000000
 80045c6:	bf04      	itt	eq
 80045c8:	0080      	lsleq	r0, r0, #2
 80045ca:	3302      	addeq	r3, #2
 80045cc:	2800      	cmp	r0, #0
 80045ce:	db05      	blt.n	80045dc <__hi0bits+0x38>
 80045d0:	f010 4f80 	tst.w	r0, #1073741824	; 0x40000000
 80045d4:	f103 0301 	add.w	r3, r3, #1
 80045d8:	bf08      	it	eq
 80045da:	2320      	moveq	r3, #32
 80045dc:	4618      	mov	r0, r3
 80045de:	4770      	bx	lr
 80045e0:	2300      	movs	r3, #0
 80045e2:	e7e4      	b.n	80045ae <__hi0bits+0xa>

080045e4 <__lo0bits>:
 80045e4:	6803      	ldr	r3, [r0, #0]
 80045e6:	f013 0207 	ands.w	r2, r3, #7
 80045ea:	4601      	mov	r1, r0
 80045ec:	d00b      	beq.n	8004606 <__lo0bits+0x22>
 80045ee:	07da      	lsls	r2, r3, #31
 80045f0:	d424      	bmi.n	800463c <__lo0bits+0x58>
 80045f2:	0798      	lsls	r0, r3, #30
 80045f4:	bf49      	itett	mi
 80045f6:	085b      	lsrmi	r3, r3, #1
 80045f8:	089b      	lsrpl	r3, r3, #2
 80045fa:	2001      	movmi	r0, #1
 80045fc:	600b      	strmi	r3, [r1, #0]
 80045fe:	bf5c      	itt	pl
 8004600:	600b      	strpl	r3, [r1, #0]
 8004602:	2002      	movpl	r0, #2
 8004604:	4770      	bx	lr
 8004606:	b298      	uxth	r0, r3
 8004608:	b9b0      	cbnz	r0, 8004638 <__lo0bits+0x54>
 800460a:	0c1b      	lsrs	r3, r3, #16
 800460c:	2010      	movs	r0, #16
 800460e:	f013 0fff 	tst.w	r3, #255	; 0xff
 8004612:	bf04      	itt	eq
 8004614:	0a1b      	lsreq	r3, r3, #8
 8004616:	3008      	addeq	r0, #8
 8004618:	071a      	lsls	r2, r3, #28
 800461a:	bf04      	itt	eq
 800461c:	091b      	lsreq	r3, r3, #4
 800461e:	3004      	addeq	r0, #4
 8004620:	079a      	lsls	r2, r3, #30
 8004622:	bf04      	itt	eq
 8004624:	089b      	lsreq	r3, r3, #2
 8004626:	3002      	addeq	r0, #2
 8004628:	07da      	lsls	r2, r3, #31
 800462a:	d403      	bmi.n	8004634 <__lo0bits+0x50>
 800462c:	085b      	lsrs	r3, r3, #1
 800462e:	f100 0001 	add.w	r0, r0, #1
 8004632:	d005      	beq.n	8004640 <__lo0bits+0x5c>
 8004634:	600b      	str	r3, [r1, #0]
 8004636:	4770      	bx	lr
 8004638:	4610      	mov	r0, r2
 800463a:	e7e8      	b.n	800460e <__lo0bits+0x2a>
 800463c:	2000      	movs	r0, #0
 800463e:	4770      	bx	lr
 8004640:	2020      	movs	r0, #32
 8004642:	4770      	bx	lr

08004644 <__i2b>:
 8004644:	b510      	push	{r4, lr}
 8004646:	460c      	mov	r4, r1
 8004648:	2101      	movs	r1, #1
 800464a:	f7ff feff 	bl	800444c <_Balloc>
 800464e:	4602      	mov	r2, r0
 8004650:	b928      	cbnz	r0, 800465e <__i2b+0x1a>
 8004652:	4b05      	ldr	r3, [pc, #20]	; (8004668 <__i2b+0x24>)
 8004654:	4805      	ldr	r0, [pc, #20]	; (800466c <__i2b+0x28>)
 8004656:	f44f 71a0 	mov.w	r1, #320	; 0x140
 800465a:	f000 fc9b 	bl	8004f94 <__assert_func>
 800465e:	2301      	movs	r3, #1
 8004660:	6144      	str	r4, [r0, #20]
 8004662:	6103      	str	r3, [r0, #16]
 8004664:	bd10      	pop	{r4, pc}
 8004666:	bf00      	nop
 8004668:	08005c8b 	.word	0x08005c8b
 800466c:	08005c9c 	.word	0x08005c9c

08004670 <__multiply>:
 8004670:	e92d 4ff0 	stmdb	sp!, {r4, r5, r6, r7, r8, r9, sl, fp, lr}
 8004674:	4614      	mov	r4, r2
 8004676:	690a      	ldr	r2, [r1, #16]
 8004678:	6923      	ldr	r3, [r4, #16]
 800467a:	429a      	cmp	r2, r3
 800467c:	bfb8      	it	lt
 800467e:	460b      	movlt	r3, r1
 8004680:	460d      	mov	r5, r1
 8004682:	bfbc      	itt	lt
 8004684:	4625      	movlt	r5, r4
 8004686:	461c      	movlt	r4, r3
 8004688:	f8d5 a010 	ldr.w	sl, [r5, #16]
 800468c:	f8d4 9010 	ldr.w	r9, [r4, #16]
 8004690:	68ab      	ldr	r3, [r5, #8]
 8004692:	6869      	ldr	r1, [r5, #4]
 8004694:	eb0a 0709 	add.w	r7, sl, r9
 8004698:	42bb      	cmp	r3, r7
 800469a:	b085      	sub	sp, #20
 800469c:	bfb8      	it	lt
 800469e:	3101      	addlt	r1, #1
 80046a0:	f7ff fed4 	bl	800444c <_Balloc>
 80046a4:	b930      	cbnz	r0, 80046b4 <__multiply+0x44>
 80046a6:	4602      	mov	r2, r0
 80046a8:	4b42      	ldr	r3, [pc, #264]	; (80047b4 <__multiply+0x144>)
 80046aa:	4843      	ldr	r0, [pc, #268]	; (80047b8 <__multiply+0x148>)
 80046ac:	f240 115d 	movw	r1, #349	; 0x15d
 80046b0:	f000 fc70 	bl	8004f94 <__assert_func>
 80046b4:	f100 0614 	add.w	r6, r0, #20
 80046b8:	eb06 0887 	add.w	r8, r6, r7, lsl #2
 80046bc:	4633      	mov	r3, r6
 80046be:	2200      	movs	r2, #0
 80046c0:	4543      	cmp	r3, r8
 80046c2:	d31e      	bcc.n	8004702 <__multiply+0x92>
 80046c4:	f105 0c14 	add.w	ip, r5, #20
 80046c8:	f104 0314 	add.w	r3, r4, #20
 80046cc:	eb0c 0c8a 	add.w	ip, ip, sl, lsl #2
 80046d0:	eb03 0289 	add.w	r2, r3, r9, lsl #2
 80046d4:	9202      	str	r2, [sp, #8]
 80046d6:	ebac 0205 	sub.w	r2, ip, r5
 80046da:	3a15      	subs	r2, #21
 80046dc:	f022 0203 	bic.w	r2, r2, #3
 80046e0:	3204      	adds	r2, #4
 80046e2:	f105 0115 	add.w	r1, r5, #21
 80046e6:	458c      	cmp	ip, r1
 80046e8:	bf38      	it	cc
 80046ea:	2204      	movcc	r2, #4
 80046ec:	9201      	str	r2, [sp, #4]
 80046ee:	9a02      	ldr	r2, [sp, #8]
 80046f0:	9303      	str	r3, [sp, #12]
 80046f2:	429a      	cmp	r2, r3
 80046f4:	d808      	bhi.n	8004708 <__multiply+0x98>
 80046f6:	2f00      	cmp	r7, #0
 80046f8:	dc55      	bgt.n	80047a6 <__multiply+0x136>
 80046fa:	6107      	str	r7, [r0, #16]
 80046fc:	b005      	add	sp, #20
 80046fe:	e8bd 8ff0 	ldmia.w	sp!, {r4, r5, r6, r7, r8, r9, sl, fp, pc}
 8004702:	f843 2b04 	str.w	r2, [r3], #4
 8004706:	e7db      	b.n	80046c0 <__multiply+0x50>
 8004708:	f8b3 a000 	ldrh.w	sl, [r3]
 800470c:	f1ba 0f00 	cmp.w	sl, #0
 8004710:	d020      	beq.n	8004754 <__multiply+0xe4>
 8004712:	f105 0e14 	add.w	lr, r5, #20
 8004716:	46b1      	mov	r9, r6
 8004718:	2200      	movs	r2, #0
 800471a:	f85e 4b04 	ldr.w	r4, [lr], #4
 800471e:	f8d9 b000 	ldr.w	fp, [r9]
 8004722:	b2a1      	uxth	r1, r4
 8004724:	fa1f fb8b 	uxth.w	fp, fp
 8004728:	fb0a b101 	mla	r1, sl, r1, fp
 800472c:	4411      	add	r1, r2
 800472e:	f8d9 2000 	ldr.w	r2, [r9]
 8004732:	0c24      	lsrs	r4, r4, #16
 8004734:	0c12      	lsrs	r2, r2, #16
 8004736:	fb0a 2404 	mla	r4, sl, r4, r2
 800473a:	eb04 4411 	add.w	r4, r4, r1, lsr #16
 800473e:	b289      	uxth	r1, r1
 8004740:	ea41 4104 	orr.w	r1, r1, r4, lsl #16
 8004744:	45f4      	cmp	ip, lr
 8004746:	f849 1b04 	str.w	r1, [r9], #4
 800474a:	ea4f 4214 	mov.w	r2, r4, lsr #16
 800474e:	d8e4      	bhi.n	800471a <__multiply+0xaa>
 8004750:	9901      	ldr	r1, [sp, #4]
 8004752:	5072      	str	r2, [r6, r1]
 8004754:	9a03      	ldr	r2, [sp, #12]
 8004756:	f8b2 9002 	ldrh.w	r9, [r2, #2]
 800475a:	3304      	adds	r3, #4
 800475c:	f1b9 0f00 	cmp.w	r9, #0
 8004760:	d01f      	beq.n	80047a2 <__multiply+0x132>
 8004762:	6834      	ldr	r4, [r6, #0]
 8004764:	f105 0114 	add.w	r1, r5, #20
 8004768:	46b6      	mov	lr, r6
 800476a:	f04f 0a00 	mov.w	sl, #0
 800476e:	880a      	ldrh	r2, [r1, #0]
 8004770:	f8be b002 	ldrh.w	fp, [lr, #2]
 8004774:	fb09 b202 	mla	r2, r9, r2, fp
 8004778:	4492      	add	sl, r2
 800477a:	b2a4      	uxth	r4, r4
 800477c:	ea44 440a 	orr.w	r4, r4, sl, lsl #16
 8004780:	f84e 4b04 	str.w	r4, [lr], #4
 8004784:	f851 4b04 	ldr.w	r4, [r1], #4
 8004788:	f8be 2000 	ldrh.w	r2, [lr]
 800478c:	0c24      	lsrs	r4, r4, #16
 800478e:	fb09 2404 	mla	r4, r9, r4, r2
 8004792:	eb04 441a 	add.w	r4, r4, sl, lsr #16
 8004796:	458c      	cmp	ip, r1
 8004798:	ea4f 4a14 	mov.w	sl, r4, lsr #16
 800479c:	d8e7      	bhi.n	800476e <__multiply+0xfe>
 800479e:	9a01      	ldr	r2, [sp, #4]
 80047a0:	50b4      	str	r4, [r6, r2]
 80047a2:	3604      	adds	r6, #4
 80047a4:	e7a3      	b.n	80046ee <__multiply+0x7e>
 80047a6:	f858 3d04 	ldr.w	r3, [r8, #-4]!
 80047aa:	2b00      	cmp	r3, #0
 80047ac:	d1a5      	bne.n	80046fa <__multiply+0x8a>
 80047ae:	3f01      	subs	r7, #1
 80047b0:	e7a1      	b.n	80046f6 <__multiply+0x86>
 80047b2:	bf00      	nop
 80047b4:	08005c8b 	.word	0x08005c8b
 80047b8:	08005c9c 	.word	0x08005c9c

080047bc <__pow5mult>:
 80047bc:	e92d 43f8 	stmdb	sp!, {r3, r4, r5, r6, r7, r8, r9, lr}
 80047c0:	4615      	mov	r5, r2
 80047c2:	f012 0203 	ands.w	r2, r2, #3
 80047c6:	4606      	mov	r6, r0
 80047c8:	460f      	mov	r7, r1
 80047ca:	d007      	beq.n	80047dc <__pow5mult+0x20>
 80047cc:	4c25      	ldr	r4, [pc, #148]	; (8004864 <__pow5mult+0xa8>)
 80047ce:	3a01      	subs	r2, #1
 80047d0:	2300      	movs	r3, #0
 80047d2:	f854 2022 	ldr.w	r2, [r4, r2, lsl #2]
 80047d6:	f7ff fe9b 	bl	8004510 <__multadd>
 80047da:	4607      	mov	r7, r0
 80047dc:	10ad      	asrs	r5, r5, #2
 80047de:	d03d      	beq.n	800485c <__pow5mult+0xa0>
 80047e0:	6a74      	ldr	r4, [r6, #36]	; 0x24
 80047e2:	b97c      	cbnz	r4, 8004804 <__pow5mult+0x48>
 80047e4:	2010      	movs	r0, #16
 80047e6:	f7ff fe1b 	bl	8004420 <malloc>
 80047ea:	4602      	mov	r2, r0
 80047ec:	6270      	str	r0, [r6, #36]	; 0x24
 80047ee:	b928      	cbnz	r0, 80047fc <__pow5mult+0x40>
 80047f0:	4b1d      	ldr	r3, [pc, #116]	; (8004868 <__pow5mult+0xac>)
 80047f2:	481e      	ldr	r0, [pc, #120]	; (800486c <__pow5mult+0xb0>)
 80047f4:	f44f 71d7 	mov.w	r1, #430	; 0x1ae
 80047f8:	f000 fbcc 	bl	8004f94 <__assert_func>
 80047fc:	e9c0 4401 	strd	r4, r4, [r0, #4]
 8004800:	6004      	str	r4, [r0, #0]
 8004802:	60c4      	str	r4, [r0, #12]
 8004804:	f8d6 8024 	ldr.w	r8, [r6, #36]	; 0x24
 8004808:	f8d8 4008 	ldr.w	r4, [r8, #8]
 800480c:	b94c      	cbnz	r4, 8004822 <__pow5mult+0x66>
 800480e:	f240 2171 	movw	r1, #625	; 0x271
 8004812:	4630      	mov	r0, r6
 8004814:	f7ff ff16 	bl	8004644 <__i2b>
 8004818:	2300      	movs	r3, #0
 800481a:	f8c8 0008 	str.w	r0, [r8, #8]
 800481e:	4604      	mov	r4, r0
 8004820:	6003      	str	r3, [r0, #0]
 8004822:	f04f 0900 	mov.w	r9, #0
 8004826:	07eb      	lsls	r3, r5, #31
 8004828:	d50a      	bpl.n	8004840 <__pow5mult+0x84>
 800482a:	4639      	mov	r1, r7
 800482c:	4622      	mov	r2, r4
 800482e:	4630      	mov	r0, r6
 8004830:	f7ff ff1e 	bl	8004670 <__multiply>
 8004834:	4639      	mov	r1, r7
 8004836:	4680      	mov	r8, r0
 8004838:	4630      	mov	r0, r6
 800483a:	f7ff fe47 	bl	80044cc <_Bfree>
 800483e:	4647      	mov	r7, r8
 8004840:	106d      	asrs	r5, r5, #1
 8004842:	d00b      	beq.n	800485c <__pow5mult+0xa0>
 8004844:	6820      	ldr	r0, [r4, #0]
 8004846:	b938      	cbnz	r0, 8004858 <__pow5mult+0x9c>
 8004848:	4622      	mov	r2, r4
 800484a:	4621      	mov	r1, r4
 800484c:	4630      	mov	r0, r6
 800484e:	f7ff ff0f 	bl	8004670 <__multiply>
 8004852:	6020      	str	r0, [r4, #0]
 8004854:	f8c0 9000 	str.w	r9, [r0]
 8004858:	4604      	mov	r4, r0
 800485a:	e7e4      	b.n	8004826 <__pow5mult+0x6a>
 800485c:	4638      	mov	r0, r7
 800485e:	e8bd 83f8 	ldmia.w	sp!, {r3, r4, r5, r6, r7, r8, r9, pc}
 8004862:	bf00      	nop
 8004864:	08005df0 	.word	0x08005df0
 8004868:	08005c15 	.word	0x08005c15
 800486c:	08005c9c 	.word	0x08005c9c

08004870 <__lshift>:
 8004870:	e92d 47f0 	stmdb	sp!, {r4, r5, r6, r7, r8, r9, sl, lr}
 8004874:	460c      	mov	r4, r1
 8004876:	6849      	ldr	r1, [r1, #4]
 8004878:	6923      	ldr	r3, [r4, #16]
 800487a:	eb03 1862 	add.w	r8, r3, r2, asr #5
 800487e:	68a3      	ldr	r3, [r4, #8]
 8004880:	4607      	mov	r7, r0
 8004882:	4691      	mov	r9, r2
 8004884:	ea4f 1a62 	mov.w	sl, r2, asr #5
 8004888:	f108 0601 	add.w	r6, r8, #1
 800488c:	42b3      	cmp	r3, r6
 800488e:	db0b      	blt.n	80048a8 <__lshift+0x38>
 8004890:	4638      	mov	r0, r7
 8004892:	f7ff fddb 	bl	800444c <_Balloc>
 8004896:	4605      	mov	r5, r0
 8004898:	b948      	cbnz	r0, 80048ae <__lshift+0x3e>
 800489a:	4602      	mov	r2, r0
 800489c:	4b28      	ldr	r3, [pc, #160]	; (8004940 <__lshift+0xd0>)
 800489e:	4829      	ldr	r0, [pc, #164]	; (8004944 <__lshift+0xd4>)
 80048a0:	f240 11d9 	movw	r1, #473	; 0x1d9
 80048a4:	f000 fb76 	bl	8004f94 <__assert_func>
 80048a8:	3101      	adds	r1, #1
 80048aa:	005b      	lsls	r3, r3, #1
 80048ac:	e7ee      	b.n	800488c <__lshift+0x1c>
 80048ae:	2300      	movs	r3, #0
 80048b0:	f100 0114 	add.w	r1, r0, #20
 80048b4:	f100 0210 	add.w	r2, r0, #16
 80048b8:	4618      	mov	r0, r3
 80048ba:	4553      	cmp	r3, sl
 80048bc:	db33      	blt.n	8004926 <__lshift+0xb6>
 80048be:	6920      	ldr	r0, [r4, #16]
 80048c0:	ea2a 7aea 	bic.w	sl, sl, sl, asr #31
 80048c4:	f104 0314 	add.w	r3, r4, #20
 80048c8:	f019 091f 	ands.w	r9, r9, #31
 80048cc:	eb01 018a 	add.w	r1, r1, sl, lsl #2
 80048d0:	eb03 0c80 	add.w	ip, r3, r0, lsl #2
 80048d4:	d02b      	beq.n	800492e <__lshift+0xbe>
 80048d6:	f1c9 0e20 	rsb	lr, r9, #32
 80048da:	468a      	mov	sl, r1
 80048dc:	2200      	movs	r2, #0
 80048de:	6818      	ldr	r0, [r3, #0]
 80048e0:	fa00 f009 	lsl.w	r0, r0, r9
 80048e4:	4302      	orrs	r2, r0
 80048e6:	f84a 2b04 	str.w	r2, [sl], #4
 80048ea:	f853 2b04 	ldr.w	r2, [r3], #4
 80048ee:	459c      	cmp	ip, r3
 80048f0:	fa22 f20e 	lsr.w	r2, r2, lr
 80048f4:	d8f3      	bhi.n	80048de <__lshift+0x6e>
 80048f6:	ebac 0304 	sub.w	r3, ip, r4
 80048fa:	3b15      	subs	r3, #21
 80048fc:	f023 0303 	bic.w	r3, r3, #3
 8004900:	3304      	adds	r3, #4
 8004902:	f104 0015 	add.w	r0, r4, #21
 8004906:	4584      	cmp	ip, r0
 8004908:	bf38      	it	cc
 800490a:	2304      	movcc	r3, #4
 800490c:	50ca      	str	r2, [r1, r3]
 800490e:	b10a      	cbz	r2, 8004914 <__lshift+0xa4>
 8004910:	f108 0602 	add.w	r6, r8, #2
 8004914:	3e01      	subs	r6, #1
 8004916:	4638      	mov	r0, r7
 8004918:	612e      	str	r6, [r5, #16]
 800491a:	4621      	mov	r1, r4
 800491c:	f7ff fdd6 	bl	80044cc <_Bfree>
 8004920:	4628      	mov	r0, r5
 8004922:	e8bd 87f0 	ldmia.w	sp!, {r4, r5, r6, r7, r8, r9, sl, pc}
 8004926:	f842 0f04 	str.w	r0, [r2, #4]!
 800492a:	3301      	adds	r3, #1
 800492c:	e7c5      	b.n	80048ba <__lshift+0x4a>
 800492e:	3904      	subs	r1, #4
 8004930:	f853 2b04 	ldr.w	r2, [r3], #4
 8004934:	f841 2f04 	str.w	r2, [r1, #4]!
 8004938:	459c      	cmp	ip, r3
 800493a:	d8f9      	bhi.n	8004930 <__lshift+0xc0>
 800493c:	e7ea      	b.n	8004914 <__lshift+0xa4>
 800493e:	bf00      	nop
 8004940:	08005c8b 	.word	0x08005c8b
 8004944:	08005c9c 	.word	0x08005c9c

08004948 <__mcmp>:
 8004948:	b530      	push	{r4, r5, lr}
 800494a:	6902      	ldr	r2, [r0, #16]
 800494c:	690c      	ldr	r4, [r1, #16]
 800494e:	1b12      	subs	r2, r2, r4
 8004950:	d10e      	bne.n	8004970 <__mcmp+0x28>
 8004952:	f100 0314 	add.w	r3, r0, #20
 8004956:	3114      	adds	r1, #20
 8004958:	eb03 0084 	add.w	r0, r3, r4, lsl #2
 800495c:	eb01 0184 	add.w	r1, r1, r4, lsl #2
 8004960:	f850 5d04 	ldr.w	r5, [r0, #-4]!
 8004964:	f851 4d04 	ldr.w	r4, [r1, #-4]!
 8004968:	42a5      	cmp	r5, r4
 800496a:	d003      	beq.n	8004974 <__mcmp+0x2c>
 800496c:	d305      	bcc.n	800497a <__mcmp+0x32>
 800496e:	2201      	movs	r2, #1
 8004970:	4610      	mov	r0, r2
 8004972:	bd30      	pop	{r4, r5, pc}
 8004974:	4283      	cmp	r3, r0
 8004976:	d3f3      	bcc.n	8004960 <__mcmp+0x18>
 8004978:	e7fa      	b.n	8004970 <__mcmp+0x28>
 800497a:	f04f 32ff 	mov.w	r2, #4294967295
 800497e:	e7f7      	b.n	8004970 <__mcmp+0x28>

08004980 <__mdiff>:
 8004980:	e92d 4ff8 	stmdb	sp!, {r3, r4, r5, r6, r7, r8, r9, sl, fp, lr}
 8004984:	460c      	mov	r4, r1
 8004986:	4606      	mov	r6, r0
 8004988:	4611      	mov	r1, r2
 800498a:	4620      	mov	r0, r4
 800498c:	4617      	mov	r7, r2
 800498e:	f7ff ffdb 	bl	8004948 <__mcmp>
 8004992:	1e05      	subs	r5, r0, #0
 8004994:	d110      	bne.n	80049b8 <__mdiff+0x38>
 8004996:	4629      	mov	r1, r5
 8004998:	4630      	mov	r0, r6
 800499a:	f7ff fd57 	bl	800444c <_Balloc>
 800499e:	b930      	cbnz	r0, 80049ae <__mdiff+0x2e>
 80049a0:	4b39      	ldr	r3, [pc, #228]	; (8004a88 <__mdiff+0x108>)
 80049a2:	4602      	mov	r2, r0
 80049a4:	f240 2132 	movw	r1, #562	; 0x232
 80049a8:	4838      	ldr	r0, [pc, #224]	; (8004a8c <__mdiff+0x10c>)
 80049aa:	f000 faf3 	bl	8004f94 <__assert_func>
 80049ae:	2301      	movs	r3, #1
 80049b0:	e9c0 3504 	strd	r3, r5, [r0, #16]
 80049b4:	e8bd 8ff8 	ldmia.w	sp!, {r3, r4, r5, r6, r7, r8, r9, sl, fp, pc}
 80049b8:	bfa4      	itt	ge
 80049ba:	463b      	movge	r3, r7
 80049bc:	4627      	movge	r7, r4
 80049be:	4630      	mov	r0, r6
 80049c0:	6879      	ldr	r1, [r7, #4]
 80049c2:	bfa6      	itte	ge
 80049c4:	461c      	movge	r4, r3
 80049c6:	2500      	movge	r5, #0
 80049c8:	2501      	movlt	r5, #1
 80049ca:	f7ff fd3f 	bl	800444c <_Balloc>
 80049ce:	b920      	cbnz	r0, 80049da <__mdiff+0x5a>
 80049d0:	4b2d      	ldr	r3, [pc, #180]	; (8004a88 <__mdiff+0x108>)
 80049d2:	4602      	mov	r2, r0
 80049d4:	f44f 7110 	mov.w	r1, #576	; 0x240
 80049d8:	e7e6      	b.n	80049a8 <__mdiff+0x28>
 80049da:	693e      	ldr	r6, [r7, #16]
 80049dc:	60c5      	str	r5, [r0, #12]
 80049de:	6925      	ldr	r5, [r4, #16]
 80049e0:	f107 0114 	add.w	r1, r7, #20
 80049e4:	f104 0914 	add.w	r9, r4, #20
 80049e8:	f100 0e14 	add.w	lr, r0, #20
 80049ec:	f107 0210 	add.w	r2, r7, #16
 80049f0:	eb01 0c86 	add.w	ip, r1, r6, lsl #2
 80049f4:	eb09 0585 	add.w	r5, r9, r5, lsl #2
 80049f8:	46f2      	mov	sl, lr
 80049fa:	2700      	movs	r7, #0
 80049fc:	f859 3b04 	ldr.w	r3, [r9], #4
 8004a00:	f852 bf04 	ldr.w	fp, [r2, #4]!
 8004a04:	fa1f f883 	uxth.w	r8, r3
 8004a08:	fa17 f78b 	uxtah	r7, r7, fp
 8004a0c:	0c1b      	lsrs	r3, r3, #16
 8004a0e:	eba7 0808 	sub.w	r8, r7, r8
 8004a12:	ebc3 431b 	rsb	r3, r3, fp, lsr #16
 8004a16:	eb03 4328 	add.w	r3, r3, r8, asr #16
 8004a1a:	fa1f f888 	uxth.w	r8, r8
 8004a1e:	141f      	asrs	r7, r3, #16
 8004a20:	454d      	cmp	r5, r9
 8004a22:	ea48 4303 	orr.w	r3, r8, r3, lsl #16
 8004a26:	f84a 3b04 	str.w	r3, [sl], #4
 8004a2a:	d8e7      	bhi.n	80049fc <__mdiff+0x7c>
 8004a2c:	1b2b      	subs	r3, r5, r4
 8004a2e:	3b15      	subs	r3, #21
 8004a30:	f023 0303 	bic.w	r3, r3, #3
 8004a34:	3304      	adds	r3, #4
 8004a36:	3415      	adds	r4, #21
 8004a38:	42a5      	cmp	r5, r4
 8004a3a:	bf38      	it	cc
 8004a3c:	2304      	movcc	r3, #4
 8004a3e:	4419      	add	r1, r3
 8004a40:	4473      	add	r3, lr
 8004a42:	469e      	mov	lr, r3
 8004a44:	460d      	mov	r5, r1
 8004a46:	4565      	cmp	r5, ip
 8004a48:	d30e      	bcc.n	8004a68 <__mdiff+0xe8>
 8004a4a:	f10c 0203 	add.w	r2, ip, #3
 8004a4e:	1a52      	subs	r2, r2, r1
 8004a50:	f022 0203 	bic.w	r2, r2, #3
 8004a54:	3903      	subs	r1, #3
 8004a56:	458c      	cmp	ip, r1
 8004a58:	bf38      	it	cc
 8004a5a:	2200      	movcc	r2, #0
 8004a5c:	441a      	add	r2, r3
 8004a5e:	f852 3d04 	ldr.w	r3, [r2, #-4]!
 8004a62:	b17b      	cbz	r3, 8004a84 <__mdiff+0x104>
 8004a64:	6106      	str	r6, [r0, #16]
 8004a66:	e7a5      	b.n	80049b4 <__mdiff+0x34>
 8004a68:	f855 8b04 	ldr.w	r8, [r5], #4
 8004a6c:	fa17 f488 	uxtah	r4, r7, r8
 8004a70:	1422      	asrs	r2, r4, #16
 8004a72:	eb02 4218 	add.w	r2, r2, r8, lsr #16
 8004a76:	b2a4      	uxth	r4, r4
 8004a78:	ea44 4402 	orr.w	r4, r4, r2, lsl #16
 8004a7c:	f84e 4b04 	str.w	r4, [lr], #4
 8004a80:	1417      	asrs	r7, r2, #16
 8004a82:	e7e0      	b.n	8004a46 <__mdiff+0xc6>
 8004a84:	3e01      	subs	r6, #1
 8004a86:	e7ea      	b.n	8004a5e <__mdiff+0xde>
 8004a88:	08005c8b 	.word	0x08005c8b
 8004a8c:	08005c9c 	.word	0x08005c9c

08004a90 <__d2b>:
 8004a90:	e92d 43f7 	stmdb	sp!, {r0, r1, r2, r4, r5, r6, r7, r8, r9, lr}
 8004a94:	4689      	mov	r9, r1
 8004a96:	2101      	movs	r1, #1
 8004a98:	ec57 6b10 	vmov	r6, r7, d0
 8004a9c:	4690      	mov	r8, r2
 8004a9e:	f7ff fcd5 	bl	800444c <_Balloc>
 8004aa2:	4604      	mov	r4, r0
 8004aa4:	b930      	cbnz	r0, 8004ab4 <__d2b+0x24>
 8004aa6:	4602      	mov	r2, r0
 8004aa8:	4b25      	ldr	r3, [pc, #148]	; (8004b40 <__d2b+0xb0>)
 8004aaa:	4826      	ldr	r0, [pc, #152]	; (8004b44 <__d2b+0xb4>)
 8004aac:	f240 310a 	movw	r1, #778	; 0x30a
 8004ab0:	f000 fa70 	bl	8004f94 <__assert_func>
 8004ab4:	f3c7 550a 	ubfx	r5, r7, #20, #11
 8004ab8:	f3c7 0313 	ubfx	r3, r7, #0, #20
 8004abc:	bb35      	cbnz	r5, 8004b0c <__d2b+0x7c>
 8004abe:	2e00      	cmp	r6, #0
 8004ac0:	9301      	str	r3, [sp, #4]
 8004ac2:	d028      	beq.n	8004b16 <__d2b+0x86>
 8004ac4:	4668      	mov	r0, sp
 8004ac6:	9600      	str	r6, [sp, #0]
 8004ac8:	f7ff fd8c 	bl	80045e4 <__lo0bits>
 8004acc:	9900      	ldr	r1, [sp, #0]
 8004ace:	b300      	cbz	r0, 8004b12 <__d2b+0x82>
 8004ad0:	9a01      	ldr	r2, [sp, #4]
 8004ad2:	f1c0 0320 	rsb	r3, r0, #32
 8004ad6:	fa02 f303 	lsl.w	r3, r2, r3
 8004ada:	430b      	orrs	r3, r1
 8004adc:	40c2      	lsrs	r2, r0
 8004ade:	6163      	str	r3, [r4, #20]
 8004ae0:	9201      	str	r2, [sp, #4]
 8004ae2:	9b01      	ldr	r3, [sp, #4]
 8004ae4:	61a3      	str	r3, [r4, #24]
 8004ae6:	2b00      	cmp	r3, #0
 8004ae8:	bf14      	ite	ne
 8004aea:	2202      	movne	r2, #2
 8004aec:	2201      	moveq	r2, #1
 8004aee:	6122      	str	r2, [r4, #16]
 8004af0:	b1d5      	cbz	r5, 8004b28 <__d2b+0x98>
 8004af2:	f2a5 4533 	subw	r5, r5, #1075	; 0x433
 8004af6:	4405      	add	r5, r0
 8004af8:	f8c9 5000 	str.w	r5, [r9]
 8004afc:	f1c0 0035 	rsb	r0, r0, #53	; 0x35
 8004b00:	f8c8 0000 	str.w	r0, [r8]
 8004b04:	4620      	mov	r0, r4
 8004b06:	b003      	add	sp, #12
 8004b08:	e8bd 83f0 	ldmia.w	sp!, {r4, r5, r6, r7, r8, r9, pc}
 8004b0c:	f443 1380 	orr.w	r3, r3, #1048576	; 0x100000
 8004b10:	e7d5      	b.n	8004abe <__d2b+0x2e>
 8004b12:	6161      	str	r1, [r4, #20]
 8004b14:	e7e5      	b.n	8004ae2 <__d2b+0x52>
 8004b16:	a801      	add	r0, sp, #4
 8004b18:	f7ff fd64 	bl	80045e4 <__lo0bits>
 8004b1c:	9b01      	ldr	r3, [sp, #4]
 8004b1e:	6163      	str	r3, [r4, #20]
 8004b20:	2201      	movs	r2, #1
 8004b22:	6122      	str	r2, [r4, #16]
 8004b24:	3020      	adds	r0, #32
 8004b26:	e7e3      	b.n	8004af0 <__d2b+0x60>
 8004b28:	eb04 0382 	add.w	r3, r4, r2, lsl #2
 8004b2c:	f2a0 4032 	subw	r0, r0, #1074	; 0x432
 8004b30:	f8c9 0000 	str.w	r0, [r9]
 8004b34:	6918      	ldr	r0, [r3, #16]
 8004b36:	f7ff fd35 	bl	80045a4 <__hi0bits>
 8004b3a:	ebc0 1042 	rsb	r0, r0, r2, lsl #5
 8004b3e:	e7df      	b.n	8004b00 <__d2b+0x70>
 8004b40:	08005c8b 	.word	0x08005c8b
 8004b44:	08005c9c 	.word	0x08005c9c

08004b48 <_calloc_r>:
 8004b48:	b513      	push	{r0, r1, r4, lr}
 8004b4a:	434a      	muls	r2, r1
 8004b4c:	4611      	mov	r1, r2
 8004b4e:	9201      	str	r2, [sp, #4]
 8004b50:	f000 f85a 	bl	8004c08 <_malloc_r>
 8004b54:	4604      	mov	r4, r0
 8004b56:	b118      	cbz	r0, 8004b60 <_calloc_r+0x18>
 8004b58:	9a01      	ldr	r2, [sp, #4]
 8004b5a:	2100      	movs	r1, #0
 8004b5c:	f7fe f950 	bl	8002e00 <memset>
 8004b60:	4620      	mov	r0, r4
 8004b62:	b002      	add	sp, #8
 8004b64:	bd10      	pop	{r4, pc}
	...

08004b68 <_free_r>:
 8004b68:	b537      	push	{r0, r1, r2, r4, r5, lr}
 8004b6a:	2900      	cmp	r1, #0
 8004b6c:	d048      	beq.n	8004c00 <_free_r+0x98>
 8004b6e:	f851 3c04 	ldr.w	r3, [r1, #-4]
 8004b72:	9001      	str	r0, [sp, #4]
 8004b74:	2b00      	cmp	r3, #0
 8004b76:	f1a1 0404 	sub.w	r4, r1, #4
 8004b7a:	bfb8      	it	lt
 8004b7c:	18e4      	addlt	r4, r4, r3
 8004b7e:	f000 fa65 	bl	800504c <__malloc_lock>
 8004b82:	4a20      	ldr	r2, [pc, #128]	; (8004c04 <_free_r+0x9c>)
 8004b84:	9801      	ldr	r0, [sp, #4]
 8004b86:	6813      	ldr	r3, [r2, #0]
 8004b88:	4615      	mov	r5, r2
 8004b8a:	b933      	cbnz	r3, 8004b9a <_free_r+0x32>
 8004b8c:	6063      	str	r3, [r4, #4]
 8004b8e:	6014      	str	r4, [r2, #0]
 8004b90:	b003      	add	sp, #12
 8004b92:	e8bd 4030 	ldmia.w	sp!, {r4, r5, lr}
 8004b96:	f000 ba5f 	b.w	8005058 <__malloc_unlock>
 8004b9a:	42a3      	cmp	r3, r4
 8004b9c:	d90b      	bls.n	8004bb6 <_free_r+0x4e>
 8004b9e:	6821      	ldr	r1, [r4, #0]
 8004ba0:	1862      	adds	r2, r4, r1
 8004ba2:	4293      	cmp	r3, r2
 8004ba4:	bf04      	itt	eq
 8004ba6:	681a      	ldreq	r2, [r3, #0]
 8004ba8:	685b      	ldreq	r3, [r3, #4]
 8004baa:	6063      	str	r3, [r4, #4]
 8004bac:	bf04      	itt	eq
 8004bae:	1852      	addeq	r2, r2, r1
 8004bb0:	6022      	streq	r2, [r4, #0]
 8004bb2:	602c      	str	r4, [r5, #0]
 8004bb4:	e7ec      	b.n	8004b90 <_free_r+0x28>
 8004bb6:	461a      	mov	r2, r3
 8004bb8:	685b      	ldr	r3, [r3, #4]
 8004bba:	b10b      	cbz	r3, 8004bc0 <_free_r+0x58>
 8004bbc:	42a3      	cmp	r3, r4
 8004bbe:	d9fa      	bls.n	8004bb6 <_free_r+0x4e>
 8004bc0:	6811      	ldr	r1, [r2, #0]
 8004bc2:	1855      	adds	r5, r2, r1
 8004bc4:	42a5      	cmp	r5, r4
 8004bc6:	d10b      	bne.n	8004be0 <_free_r+0x78>
 8004bc8:	6824      	ldr	r4, [r4, #0]
 8004bca:	4421      	add	r1, r4
 8004bcc:	1854      	adds	r4, r2, r1
 8004bce:	42a3      	cmp	r3, r4
 8004bd0:	6011      	str	r1, [r2, #0]
 8004bd2:	d1dd      	bne.n	8004b90 <_free_r+0x28>
 8004bd4:	681c      	ldr	r4, [r3, #0]
 8004bd6:	685b      	ldr	r3, [r3, #4]
 8004bd8:	6053      	str	r3, [r2, #4]
 8004bda:	4421      	add	r1, r4
 8004bdc:	6011      	str	r1, [r2, #0]
 8004bde:	e7d7      	b.n	8004b90 <_free_r+0x28>
 8004be0:	d902      	bls.n	8004be8 <_free_r+0x80>
 8004be2:	230c      	movs	r3, #12
 8004be4:	6003      	str	r3, [r0, #0]
 8004be6:	e7d3      	b.n	8004b90 <_free_r+0x28>
 8004be8:	6825      	ldr	r5, [r4, #0]
 8004bea:	1961      	adds	r1, r4, r5
 8004bec:	428b      	cmp	r3, r1
 8004bee:	bf04      	itt	eq
 8004bf0:	6819      	ldreq	r1, [r3, #0]
 8004bf2:	685b      	ldreq	r3, [r3, #4]
 8004bf4:	6063      	str	r3, [r4, #4]
 8004bf6:	bf04      	itt	eq
 8004bf8:	1949      	addeq	r1, r1, r5
 8004bfa:	6021      	streq	r1, [r4, #0]
 8004bfc:	6054      	str	r4, [r2, #4]
 8004bfe:	e7c7      	b.n	8004b90 <_free_r+0x28>
 8004c00:	b003      	add	sp, #12
 8004c02:	bd30      	pop	{r4, r5, pc}
 8004c04:	20000260 	.word	0x20000260

08004c08 <_malloc_r>:
 8004c08:	b5f8      	push	{r3, r4, r5, r6, r7, lr}
 8004c0a:	1ccd      	adds	r5, r1, #3
 8004c0c:	f025 0503 	bic.w	r5, r5, #3
 8004c10:	3508      	adds	r5, #8
 8004c12:	2d0c      	cmp	r5, #12
 8004c14:	bf38      	it	cc
 8004c16:	250c      	movcc	r5, #12
 8004c18:	2d00      	cmp	r5, #0
 8004c1a:	4606      	mov	r6, r0
 8004c1c:	db01      	blt.n	8004c22 <_malloc_r+0x1a>
 8004c1e:	42a9      	cmp	r1, r5
 8004c20:	d903      	bls.n	8004c2a <_malloc_r+0x22>
 8004c22:	230c      	movs	r3, #12
 8004c24:	6033      	str	r3, [r6, #0]
 8004c26:	2000      	movs	r0, #0
 8004c28:	bdf8      	pop	{r3, r4, r5, r6, r7, pc}
 8004c2a:	f000 fa0f 	bl	800504c <__malloc_lock>
 8004c2e:	4921      	ldr	r1, [pc, #132]	; (8004cb4 <_malloc_r+0xac>)
 8004c30:	680a      	ldr	r2, [r1, #0]
 8004c32:	4614      	mov	r4, r2
 8004c34:	b99c      	cbnz	r4, 8004c5e <_malloc_r+0x56>
 8004c36:	4f20      	ldr	r7, [pc, #128]	; (8004cb8 <_malloc_r+0xb0>)
 8004c38:	683b      	ldr	r3, [r7, #0]
 8004c3a:	b923      	cbnz	r3, 8004c46 <_malloc_r+0x3e>
 8004c3c:	4621      	mov	r1, r4
 8004c3e:	4630      	mov	r0, r6
 8004c40:	f000 f998 	bl	8004f74 <_sbrk_r>
 8004c44:	6038      	str	r0, [r7, #0]
 8004c46:	4629      	mov	r1, r5
 8004c48:	4630      	mov	r0, r6
 8004c4a:	f000 f993 	bl	8004f74 <_sbrk_r>
 8004c4e:	1c43      	adds	r3, r0, #1
 8004c50:	d123      	bne.n	8004c9a <_malloc_r+0x92>
 8004c52:	230c      	movs	r3, #12
 8004c54:	6033      	str	r3, [r6, #0]
 8004c56:	4630      	mov	r0, r6
 8004c58:	f000 f9fe 	bl	8005058 <__malloc_unlock>
 8004c5c:	e7e3      	b.n	8004c26 <_malloc_r+0x1e>
 8004c5e:	6823      	ldr	r3, [r4, #0]
 8004c60:	1b5b      	subs	r3, r3, r5
 8004c62:	d417      	bmi.n	8004c94 <_malloc_r+0x8c>
 8004c64:	2b0b      	cmp	r3, #11
 8004c66:	d903      	bls.n	8004c70 <_malloc_r+0x68>
 8004c68:	6023      	str	r3, [r4, #0]
 8004c6a:	441c      	add	r4, r3
 8004c6c:	6025      	str	r5, [r4, #0]
 8004c6e:	e004      	b.n	8004c7a <_malloc_r+0x72>
 8004c70:	6863      	ldr	r3, [r4, #4]
 8004c72:	42a2      	cmp	r2, r4
 8004c74:	bf0c      	ite	eq
 8004c76:	600b      	streq	r3, [r1, #0]
 8004c78:	6053      	strne	r3, [r2, #4]
 8004c7a:	4630      	mov	r0, r6
 8004c7c:	f000 f9ec 	bl	8005058 <__malloc_unlock>
 8004c80:	f104 000b 	add.w	r0, r4, #11
 8004c84:	1d23      	adds	r3, r4, #4
 8004c86:	f020 0007 	bic.w	r0, r0, #7
 8004c8a:	1ac2      	subs	r2, r0, r3
 8004c8c:	d0cc      	beq.n	8004c28 <_malloc_r+0x20>
 8004c8e:	1a1b      	subs	r3, r3, r0
 8004c90:	50a3      	str	r3, [r4, r2]
 8004c92:	e7c9      	b.n	8004c28 <_malloc_r+0x20>
 8004c94:	4622      	mov	r2, r4
 8004c96:	6864      	ldr	r4, [r4, #4]
 8004c98:	e7cc      	b.n	8004c34 <_malloc_r+0x2c>
 8004c9a:	1cc4      	adds	r4, r0, #3
 8004c9c:	f024 0403 	bic.w	r4, r4, #3
 8004ca0:	42a0      	cmp	r0, r4
 8004ca2:	d0e3      	beq.n	8004c6c <_malloc_r+0x64>
 8004ca4:	1a21      	subs	r1, r4, r0
 8004ca6:	4630      	mov	r0, r6
 8004ca8:	f000 f964 	bl	8004f74 <_sbrk_r>
 8004cac:	3001      	adds	r0, #1
 8004cae:	d1dd      	bne.n	8004c6c <_malloc_r+0x64>
 8004cb0:	e7cf      	b.n	8004c52 <_malloc_r+0x4a>
 8004cb2:	bf00      	nop
 8004cb4:	20000260 	.word	0x20000260
 8004cb8:	20000264 	.word	0x20000264

08004cbc <__ssputs_r>:
 8004cbc:	e92d 47f0 	stmdb	sp!, {r4, r5, r6, r7, r8, r9, sl, lr}
 8004cc0:	688e      	ldr	r6, [r1, #8]
 8004cc2:	429e      	cmp	r6, r3
 8004cc4:	4682      	mov	sl, r0
 8004cc6:	460c      	mov	r4, r1
 8004cc8:	4690      	mov	r8, r2
 8004cca:	461f      	mov	r7, r3
 8004ccc:	d838      	bhi.n	8004d40 <__ssputs_r+0x84>
 8004cce:	898a      	ldrh	r2, [r1, #12]
 8004cd0:	f412 6f90 	tst.w	r2, #1152	; 0x480
 8004cd4:	d032      	beq.n	8004d3c <__ssputs_r+0x80>
 8004cd6:	6825      	ldr	r5, [r4, #0]
 8004cd8:	6909      	ldr	r1, [r1, #16]
 8004cda:	eba5 0901 	sub.w	r9, r5, r1
 8004cde:	6965      	ldr	r5, [r4, #20]
 8004ce0:	eb05 0545 	add.w	r5, r5, r5, lsl #1
 8004ce4:	eb05 75d5 	add.w	r5, r5, r5, lsr #31
 8004ce8:	3301      	adds	r3, #1
 8004cea:	444b      	add	r3, r9
 8004cec:	106d      	asrs	r5, r5, #1
 8004cee:	429d      	cmp	r5, r3
 8004cf0:	bf38      	it	cc
 8004cf2:	461d      	movcc	r5, r3
 8004cf4:	0553      	lsls	r3, r2, #21
 8004cf6:	d531      	bpl.n	8004d5c <__ssputs_r+0xa0>
 8004cf8:	4629      	mov	r1, r5
 8004cfa:	f7ff ff85 	bl	8004c08 <_malloc_r>
 8004cfe:	4606      	mov	r6, r0
 8004d00:	b950      	cbnz	r0, 8004d18 <__ssputs_r+0x5c>
 8004d02:	230c      	movs	r3, #12
 8004d04:	f8ca 3000 	str.w	r3, [sl]
 8004d08:	89a3      	ldrh	r3, [r4, #12]
 8004d0a:	f043 0340 	orr.w	r3, r3, #64	; 0x40
 8004d0e:	81a3      	strh	r3, [r4, #12]
 8004d10:	f04f 30ff 	mov.w	r0, #4294967295
 8004d14:	e8bd 87f0 	ldmia.w	sp!, {r4, r5, r6, r7, r8, r9, sl, pc}
 8004d18:	6921      	ldr	r1, [r4, #16]
 8004d1a:	464a      	mov	r2, r9
 8004d1c:	f7ff fb88 	bl	8004430 <memcpy>
 8004d20:	89a3      	ldrh	r3, [r4, #12]
 8004d22:	f423 6390 	bic.w	r3, r3, #1152	; 0x480
 8004d26:	f043 0380 	orr.w	r3, r3, #128	; 0x80
 8004d2a:	81a3      	strh	r3, [r4, #12]
 8004d2c:	6126      	str	r6, [r4, #16]
 8004d2e:	6165      	str	r5, [r4, #20]
 8004d30:	444e      	add	r6, r9
 8004d32:	eba5 0509 	sub.w	r5, r5, r9
 8004d36:	6026      	str	r6, [r4, #0]
 8004d38:	60a5      	str	r5, [r4, #8]
 8004d3a:	463e      	mov	r6, r7
 8004d3c:	42be      	cmp	r6, r7
 8004d3e:	d900      	bls.n	8004d42 <__ssputs_r+0x86>
 8004d40:	463e      	mov	r6, r7
 8004d42:	4632      	mov	r2, r6
 8004d44:	6820      	ldr	r0, [r4, #0]
 8004d46:	4641      	mov	r1, r8
 8004d48:	f000 f966 	bl	8005018 <memmove>
 8004d4c:	68a3      	ldr	r3, [r4, #8]
 8004d4e:	6822      	ldr	r2, [r4, #0]
 8004d50:	1b9b      	subs	r3, r3, r6
 8004d52:	4432      	add	r2, r6
 8004d54:	60a3      	str	r3, [r4, #8]
 8004d56:	6022      	str	r2, [r4, #0]
 8004d58:	2000      	movs	r0, #0
 8004d5a:	e7db      	b.n	8004d14 <__ssputs_r+0x58>
 8004d5c:	462a      	mov	r2, r5
 8004d5e:	f000 f981 	bl	8005064 <_realloc_r>
 8004d62:	4606      	mov	r6, r0
 8004d64:	2800      	cmp	r0, #0
 8004d66:	d1e1      	bne.n	8004d2c <__ssputs_r+0x70>
 8004d68:	6921      	ldr	r1, [r4, #16]
 8004d6a:	4650      	mov	r0, sl
 8004d6c:	f7ff fefc 	bl	8004b68 <_free_r>
 8004d70:	e7c7      	b.n	8004d02 <__ssputs_r+0x46>
	...

08004d74 <_svfiprintf_r>:
 8004d74:	e92d 4ff0 	stmdb	sp!, {r4, r5, r6, r7, r8, r9, sl, fp, lr}
 8004d78:	4698      	mov	r8, r3
 8004d7a:	898b      	ldrh	r3, [r1, #12]
 8004d7c:	061b      	lsls	r3, r3, #24
 8004d7e:	b09d      	sub	sp, #116	; 0x74
 8004d80:	4607      	mov	r7, r0
 8004d82:	460d      	mov	r5, r1
 8004d84:	4614      	mov	r4, r2
 8004d86:	d50e      	bpl.n	8004da6 <_svfiprintf_r+0x32>
 8004d88:	690b      	ldr	r3, [r1, #16]
 8004d8a:	b963      	cbnz	r3, 8004da6 <_svfiprintf_r+0x32>
 8004d8c:	2140      	movs	r1, #64	; 0x40
 8004d8e:	f7ff ff3b 	bl	8004c08 <_malloc_r>
 8004d92:	6028      	str	r0, [r5, #0]
 8004d94:	6128      	str	r0, [r5, #16]
 8004d96:	b920      	cbnz	r0, 8004da2 <_svfiprintf_r+0x2e>
 8004d98:	230c      	movs	r3, #12
 8004d9a:	603b      	str	r3, [r7, #0]
 8004d9c:	f04f 30ff 	mov.w	r0, #4294967295
 8004da0:	e0d1      	b.n	8004f46 <_svfiprintf_r+0x1d2>
 8004da2:	2340      	movs	r3, #64	; 0x40
 8004da4:	616b      	str	r3, [r5, #20]
 8004da6:	2300      	movs	r3, #0
 8004da8:	9309      	str	r3, [sp, #36]	; 0x24
 8004daa:	2320      	movs	r3, #32
 8004dac:	f88d 3029 	strb.w	r3, [sp, #41]	; 0x29
 8004db0:	f8cd 800c 	str.w	r8, [sp, #12]
 8004db4:	2330      	movs	r3, #48	; 0x30
 8004db6:	f8df 81a8 	ldr.w	r8, [pc, #424]	; 8004f60 <_svfiprintf_r+0x1ec>
 8004dba:	f88d 302a 	strb.w	r3, [sp, #42]	; 0x2a
 8004dbe:	f04f 0901 	mov.w	r9, #1
 8004dc2:	4623      	mov	r3, r4
 8004dc4:	469a      	mov	sl, r3
 8004dc6:	f813 2b01 	ldrb.w	r2, [r3], #1
 8004dca:	b10a      	cbz	r2, 8004dd0 <_svfiprintf_r+0x5c>
 8004dcc:	2a25      	cmp	r2, #37	; 0x25
 8004dce:	d1f9      	bne.n	8004dc4 <_svfiprintf_r+0x50>
 8004dd0:	ebba 0b04 	subs.w	fp, sl, r4
 8004dd4:	d00b      	beq.n	8004dee <_svfiprintf_r+0x7a>
 8004dd6:	465b      	mov	r3, fp
 8004dd8:	4622      	mov	r2, r4
 8004dda:	4629      	mov	r1, r5
 8004ddc:	4638      	mov	r0, r7
 8004dde:	f7ff ff6d 	bl	8004cbc <__ssputs_r>
 8004de2:	3001      	adds	r0, #1
 8004de4:	f000 80aa 	beq.w	8004f3c <_svfiprintf_r+0x1c8>
 8004de8:	9a09      	ldr	r2, [sp, #36]	; 0x24
 8004dea:	445a      	add	r2, fp
 8004dec:	9209      	str	r2, [sp, #36]	; 0x24
 8004dee:	f89a 3000 	ldrb.w	r3, [sl]
 8004df2:	2b00      	cmp	r3, #0
 8004df4:	f000 80a2 	beq.w	8004f3c <_svfiprintf_r+0x1c8>
 8004df8:	2300      	movs	r3, #0
 8004dfa:	f04f 32ff 	mov.w	r2, #4294967295
 8004dfe:	e9cd 2305 	strd	r2, r3, [sp, #20]
 8004e02:	f10a 0a01 	add.w	sl, sl, #1
 8004e06:	9304      	str	r3, [sp, #16]
 8004e08:	9307      	str	r3, [sp, #28]
 8004e0a:	f88d 3053 	strb.w	r3, [sp, #83]	; 0x53
 8004e0e:	931a      	str	r3, [sp, #104]	; 0x68
 8004e10:	4654      	mov	r4, sl
 8004e12:	2205      	movs	r2, #5
 8004e14:	f814 1b01 	ldrb.w	r1, [r4], #1
 8004e18:	4851      	ldr	r0, [pc, #324]	; (8004f60 <_svfiprintf_r+0x1ec>)
 8004e1a:	f7fb f9e1 	bl	80001e0 <memchr>
 8004e1e:	9a04      	ldr	r2, [sp, #16]
 8004e20:	b9d8      	cbnz	r0, 8004e5a <_svfiprintf_r+0xe6>
 8004e22:	06d0      	lsls	r0, r2, #27
 8004e24:	bf44      	itt	mi
 8004e26:	2320      	movmi	r3, #32
 8004e28:	f88d 3053 	strbmi.w	r3, [sp, #83]	; 0x53
 8004e2c:	0711      	lsls	r1, r2, #28
 8004e2e:	bf44      	itt	mi
 8004e30:	232b      	movmi	r3, #43	; 0x2b
 8004e32:	f88d 3053 	strbmi.w	r3, [sp, #83]	; 0x53
 8004e36:	f89a 3000 	ldrb.w	r3, [sl]
 8004e3a:	2b2a      	cmp	r3, #42	; 0x2a
 8004e3c:	d015      	beq.n	8004e6a <_svfiprintf_r+0xf6>
 8004e3e:	9a07      	ldr	r2, [sp, #28]
 8004e40:	4654      	mov	r4, sl
 8004e42:	2000      	movs	r0, #0
 8004e44:	f04f 0c0a 	mov.w	ip, #10
 8004e48:	4621      	mov	r1, r4
 8004e4a:	f811 3b01 	ldrb.w	r3, [r1], #1
 8004e4e:	3b30      	subs	r3, #48	; 0x30
 8004e50:	2b09      	cmp	r3, #9
 8004e52:	d94e      	bls.n	8004ef2 <_svfiprintf_r+0x17e>
 8004e54:	b1b0      	cbz	r0, 8004e84 <_svfiprintf_r+0x110>
 8004e56:	9207      	str	r2, [sp, #28]
 8004e58:	e014      	b.n	8004e84 <_svfiprintf_r+0x110>
 8004e5a:	eba0 0308 	sub.w	r3, r0, r8
 8004e5e:	fa09 f303 	lsl.w	r3, r9, r3
 8004e62:	4313      	orrs	r3, r2
 8004e64:	9304      	str	r3, [sp, #16]
 8004e66:	46a2      	mov	sl, r4
 8004e68:	e7d2      	b.n	8004e10 <_svfiprintf_r+0x9c>
 8004e6a:	9b03      	ldr	r3, [sp, #12]
 8004e6c:	1d19      	adds	r1, r3, #4
 8004e6e:	681b      	ldr	r3, [r3, #0]
 8004e70:	9103      	str	r1, [sp, #12]
 8004e72:	2b00      	cmp	r3, #0
 8004e74:	bfbb      	ittet	lt
 8004e76:	425b      	neglt	r3, r3
 8004e78:	f042 0202 	orrlt.w	r2, r2, #2
 8004e7c:	9307      	strge	r3, [sp, #28]
 8004e7e:	9307      	strlt	r3, [sp, #28]
 8004e80:	bfb8      	it	lt
 8004e82:	9204      	strlt	r2, [sp, #16]
 8004e84:	7823      	ldrb	r3, [r4, #0]
 8004e86:	2b2e      	cmp	r3, #46	; 0x2e
 8004e88:	d10c      	bne.n	8004ea4 <_svfiprintf_r+0x130>
 8004e8a:	7863      	ldrb	r3, [r4, #1]
 8004e8c:	2b2a      	cmp	r3, #42	; 0x2a
 8004e8e:	d135      	bne.n	8004efc <_svfiprintf_r+0x188>
 8004e90:	9b03      	ldr	r3, [sp, #12]
 8004e92:	1d1a      	adds	r2, r3, #4
 8004e94:	681b      	ldr	r3, [r3, #0]
 8004e96:	9203      	str	r2, [sp, #12]
 8004e98:	2b00      	cmp	r3, #0
 8004e9a:	bfb8      	it	lt
 8004e9c:	f04f 33ff 	movlt.w	r3, #4294967295
 8004ea0:	3402      	adds	r4, #2
 8004ea2:	9305      	str	r3, [sp, #20]
 8004ea4:	f8df a0c8 	ldr.w	sl, [pc, #200]	; 8004f70 <_svfiprintf_r+0x1fc>
 8004ea8:	7821      	ldrb	r1, [r4, #0]
 8004eaa:	2203      	movs	r2, #3
 8004eac:	4650      	mov	r0, sl
 8004eae:	f7fb f997 	bl	80001e0 <memchr>
 8004eb2:	b140      	cbz	r0, 8004ec6 <_svfiprintf_r+0x152>
 8004eb4:	2340      	movs	r3, #64	; 0x40
 8004eb6:	eba0 000a 	sub.w	r0, r0, sl
 8004eba:	fa03 f000 	lsl.w	r0, r3, r0
 8004ebe:	9b04      	ldr	r3, [sp, #16]
 8004ec0:	4303      	orrs	r3, r0
 8004ec2:	3401      	adds	r4, #1
 8004ec4:	9304      	str	r3, [sp, #16]
 8004ec6:	f814 1b01 	ldrb.w	r1, [r4], #1
 8004eca:	4826      	ldr	r0, [pc, #152]	; (8004f64 <_svfiprintf_r+0x1f0>)
 8004ecc:	f88d 1028 	strb.w	r1, [sp, #40]	; 0x28
 8004ed0:	2206      	movs	r2, #6
 8004ed2:	f7fb f985 	bl	80001e0 <memchr>
 8004ed6:	2800      	cmp	r0, #0
 8004ed8:	d038      	beq.n	8004f4c <_svfiprintf_r+0x1d8>
 8004eda:	4b23      	ldr	r3, [pc, #140]	; (8004f68 <_svfiprintf_r+0x1f4>)
 8004edc:	bb1b      	cbnz	r3, 8004f26 <_svfiprintf_r+0x1b2>
 8004ede:	9b03      	ldr	r3, [sp, #12]
 8004ee0:	3307      	adds	r3, #7
 8004ee2:	f023 0307 	bic.w	r3, r3, #7
 8004ee6:	3308      	adds	r3, #8
 8004ee8:	9303      	str	r3, [sp, #12]
 8004eea:	9b09      	ldr	r3, [sp, #36]	; 0x24
 8004eec:	4433      	add	r3, r6
 8004eee:	9309      	str	r3, [sp, #36]	; 0x24
 8004ef0:	e767      	b.n	8004dc2 <_svfiprintf_r+0x4e>
 8004ef2:	fb0c 3202 	mla	r2, ip, r2, r3
 8004ef6:	460c      	mov	r4, r1
 8004ef8:	2001      	movs	r0, #1
 8004efa:	e7a5      	b.n	8004e48 <_svfiprintf_r+0xd4>
 8004efc:	2300      	movs	r3, #0
 8004efe:	3401      	adds	r4, #1
 8004f00:	9305      	str	r3, [sp, #20]
 8004f02:	4619      	mov	r1, r3
 8004f04:	f04f 0c0a 	mov.w	ip, #10
 8004f08:	4620      	mov	r0, r4
 8004f0a:	f810 2b01 	ldrb.w	r2, [r0], #1
 8004f0e:	3a30      	subs	r2, #48	; 0x30
 8004f10:	2a09      	cmp	r2, #9
 8004f12:	d903      	bls.n	8004f1c <_svfiprintf_r+0x1a8>
 8004f14:	2b00      	cmp	r3, #0
 8004f16:	d0c5      	beq.n	8004ea4 <_svfiprintf_r+0x130>
 8004f18:	9105      	str	r1, [sp, #20]
 8004f1a:	e7c3      	b.n	8004ea4 <_svfiprintf_r+0x130>
 8004f1c:	fb0c 2101 	mla	r1, ip, r1, r2
 8004f20:	4604      	mov	r4, r0
 8004f22:	2301      	movs	r3, #1
 8004f24:	e7f0      	b.n	8004f08 <_svfiprintf_r+0x194>
 8004f26:	ab03      	add	r3, sp, #12
 8004f28:	9300      	str	r3, [sp, #0]
 8004f2a:	462a      	mov	r2, r5
 8004f2c:	4b0f      	ldr	r3, [pc, #60]	; (8004f6c <_svfiprintf_r+0x1f8>)
 8004f2e:	a904      	add	r1, sp, #16
 8004f30:	4638      	mov	r0, r7
 8004f32:	f7fe f80d 	bl	8002f50 <_printf_float>
 8004f36:	1c42      	adds	r2, r0, #1
 8004f38:	4606      	mov	r6, r0
 8004f3a:	d1d6      	bne.n	8004eea <_svfiprintf_r+0x176>
 8004f3c:	89ab      	ldrh	r3, [r5, #12]
 8004f3e:	065b      	lsls	r3, r3, #25
 8004f40:	f53f af2c 	bmi.w	8004d9c <_svfiprintf_r+0x28>
 8004f44:	9809      	ldr	r0, [sp, #36]	; 0x24
 8004f46:	b01d      	add	sp, #116	; 0x74
 8004f48:	e8bd 8ff0 	ldmia.w	sp!, {r4, r5, r6, r7, r8, r9, sl, fp, pc}
 8004f4c:	ab03      	add	r3, sp, #12
 8004f4e:	9300      	str	r3, [sp, #0]
 8004f50:	462a      	mov	r2, r5
 8004f52:	4b06      	ldr	r3, [pc, #24]	; (8004f6c <_svfiprintf_r+0x1f8>)
 8004f54:	a904      	add	r1, sp, #16
 8004f56:	4638      	mov	r0, r7
 8004f58:	f7fe fa9e 	bl	8003498 <_printf_i>
 8004f5c:	e7eb      	b.n	8004f36 <_svfiprintf_r+0x1c2>
 8004f5e:	bf00      	nop
 8004f60:	08005dfc 	.word	0x08005dfc
 8004f64:	08005e06 	.word	0x08005e06
 8004f68:	08002f51 	.word	0x08002f51
 8004f6c:	08004cbd 	.word	0x08004cbd
 8004f70:	08005e02 	.word	0x08005e02

08004f74 <_sbrk_r>:
 8004f74:	b538      	push	{r3, r4, r5, lr}
 8004f76:	4d06      	ldr	r5, [pc, #24]	; (8004f90 <_sbrk_r+0x1c>)
 8004f78:	2300      	movs	r3, #0
 8004f7a:	4604      	mov	r4, r0
 8004f7c:	4608      	mov	r0, r1
 8004f7e:	602b      	str	r3, [r5, #0]
 8004f80:	f7fc fd2c 	bl	80019dc <_sbrk>
 8004f84:	1c43      	adds	r3, r0, #1
 8004f86:	d102      	bne.n	8004f8e <_sbrk_r+0x1a>
 8004f88:	682b      	ldr	r3, [r5, #0]
 8004f8a:	b103      	cbz	r3, 8004f8e <_sbrk_r+0x1a>
 8004f8c:	6023      	str	r3, [r4, #0]
 8004f8e:	bd38      	pop	{r3, r4, r5, pc}
 8004f90:	20000488 	.word	0x20000488

08004f94 <__assert_func>:
 8004f94:	b51f      	push	{r0, r1, r2, r3, r4, lr}
 8004f96:	4614      	mov	r4, r2
 8004f98:	461a      	mov	r2, r3
 8004f9a:	4b09      	ldr	r3, [pc, #36]	; (8004fc0 <__assert_func+0x2c>)
 8004f9c:	681b      	ldr	r3, [r3, #0]
 8004f9e:	4605      	mov	r5, r0
 8004fa0:	68d8      	ldr	r0, [r3, #12]
 8004fa2:	b14c      	cbz	r4, 8004fb8 <__assert_func+0x24>
 8004fa4:	4b07      	ldr	r3, [pc, #28]	; (8004fc4 <__assert_func+0x30>)
 8004fa6:	9100      	str	r1, [sp, #0]
 8004fa8:	e9cd 3401 	strd	r3, r4, [sp, #4]
 8004fac:	4906      	ldr	r1, [pc, #24]	; (8004fc8 <__assert_func+0x34>)
 8004fae:	462b      	mov	r3, r5
 8004fb0:	f000 f80e 	bl	8004fd0 <fiprintf>
 8004fb4:	f000 faa4 	bl	8005500 <abort>
 8004fb8:	4b04      	ldr	r3, [pc, #16]	; (8004fcc <__assert_func+0x38>)
 8004fba:	461c      	mov	r4, r3
 8004fbc:	e7f3      	b.n	8004fa6 <__assert_func+0x12>
 8004fbe:	bf00      	nop
 8004fc0:	2000000c 	.word	0x2000000c
 8004fc4:	08005e0d 	.word	0x08005e0d
 8004fc8:	08005e1a 	.word	0x08005e1a
 8004fcc:	08005e48 	.word	0x08005e48

08004fd0 <fiprintf>:
 8004fd0:	b40e      	push	{r1, r2, r3}
 8004fd2:	b503      	push	{r0, r1, lr}
 8004fd4:	4601      	mov	r1, r0
 8004fd6:	ab03      	add	r3, sp, #12
 8004fd8:	4805      	ldr	r0, [pc, #20]	; (8004ff0 <fiprintf+0x20>)
 8004fda:	f853 2b04 	ldr.w	r2, [r3], #4
 8004fde:	6800      	ldr	r0, [r0, #0]
 8004fe0:	9301      	str	r3, [sp, #4]
 8004fe2:	f000 f88f 	bl	8005104 <_vfiprintf_r>
 8004fe6:	b002      	add	sp, #8
 8004fe8:	f85d eb04 	ldr.w	lr, [sp], #4
 8004fec:	b003      	add	sp, #12
 8004fee:	4770      	bx	lr
 8004ff0:	2000000c 	.word	0x2000000c

08004ff4 <__ascii_mbtowc>:
 8004ff4:	b082      	sub	sp, #8
 8004ff6:	b901      	cbnz	r1, 8004ffa <__ascii_mbtowc+0x6>
 8004ff8:	a901      	add	r1, sp, #4
 8004ffa:	b142      	cbz	r2, 800500e <__ascii_mbtowc+0x1a>
 8004ffc:	b14b      	cbz	r3, 8005012 <__ascii_mbtowc+0x1e>
 8004ffe:	7813      	ldrb	r3, [r2, #0]
 8005000:	600b      	str	r3, [r1, #0]
 8005002:	7812      	ldrb	r2, [r2, #0]
 8005004:	1e10      	subs	r0, r2, #0
 8005006:	bf18      	it	ne
 8005008:	2001      	movne	r0, #1
 800500a:	b002      	add	sp, #8
 800500c:	4770      	bx	lr
 800500e:	4610      	mov	r0, r2
 8005010:	e7fb      	b.n	800500a <__ascii_mbtowc+0x16>
 8005012:	f06f 0001 	mvn.w	r0, #1
 8005016:	e7f8      	b.n	800500a <__ascii_mbtowc+0x16>

08005018 <memmove>:
 8005018:	4288      	cmp	r0, r1
 800501a:	b510      	push	{r4, lr}
 800501c:	eb01 0402 	add.w	r4, r1, r2
 8005020:	d902      	bls.n	8005028 <memmove+0x10>
 8005022:	4284      	cmp	r4, r0
 8005024:	4623      	mov	r3, r4
 8005026:	d807      	bhi.n	8005038 <memmove+0x20>
 8005028:	1e43      	subs	r3, r0, #1
 800502a:	42a1      	cmp	r1, r4
 800502c:	d008      	beq.n	8005040 <memmove+0x28>
 800502e:	f811 2b01 	ldrb.w	r2, [r1], #1
 8005032:	f803 2f01 	strb.w	r2, [r3, #1]!
 8005036:	e7f8      	b.n	800502a <memmove+0x12>
 8005038:	4402      	add	r2, r0
 800503a:	4601      	mov	r1, r0
 800503c:	428a      	cmp	r2, r1
 800503e:	d100      	bne.n	8005042 <memmove+0x2a>
 8005040:	bd10      	pop	{r4, pc}
 8005042:	f813 4d01 	ldrb.w	r4, [r3, #-1]!
 8005046:	f802 4d01 	strb.w	r4, [r2, #-1]!
 800504a:	e7f7      	b.n	800503c <memmove+0x24>

0800504c <__malloc_lock>:
 800504c:	4801      	ldr	r0, [pc, #4]	; (8005054 <__malloc_lock+0x8>)
 800504e:	f000 bc17 	b.w	8005880 <__retarget_lock_acquire_recursive>
 8005052:	bf00      	nop
 8005054:	20000490 	.word	0x20000490

08005058 <__malloc_unlock>:
 8005058:	4801      	ldr	r0, [pc, #4]	; (8005060 <__malloc_unlock+0x8>)
 800505a:	f000 bc12 	b.w	8005882 <__retarget_lock_release_recursive>
 800505e:	bf00      	nop
 8005060:	20000490 	.word	0x20000490

08005064 <_realloc_r>:
 8005064:	b5f8      	push	{r3, r4, r5, r6, r7, lr}
 8005066:	4607      	mov	r7, r0
 8005068:	4614      	mov	r4, r2
 800506a:	460e      	mov	r6, r1
 800506c:	b921      	cbnz	r1, 8005078 <_realloc_r+0x14>
 800506e:	e8bd 40f8 	ldmia.w	sp!, {r3, r4, r5, r6, r7, lr}
 8005072:	4611      	mov	r1, r2
 8005074:	f7ff bdc8 	b.w	8004c08 <_malloc_r>
 8005078:	b922      	cbnz	r2, 8005084 <_realloc_r+0x20>
 800507a:	f7ff fd75 	bl	8004b68 <_free_r>
 800507e:	4625      	mov	r5, r4
 8005080:	4628      	mov	r0, r5
 8005082:	bdf8      	pop	{r3, r4, r5, r6, r7, pc}
 8005084:	f000 fc62 	bl	800594c <_malloc_usable_size_r>
 8005088:	42a0      	cmp	r0, r4
 800508a:	d20f      	bcs.n	80050ac <_realloc_r+0x48>
 800508c:	4621      	mov	r1, r4
 800508e:	4638      	mov	r0, r7
 8005090:	f7ff fdba 	bl	8004c08 <_malloc_r>
 8005094:	4605      	mov	r5, r0
 8005096:	2800      	cmp	r0, #0
 8005098:	d0f2      	beq.n	8005080 <_realloc_r+0x1c>
 800509a:	4631      	mov	r1, r6
 800509c:	4622      	mov	r2, r4
 800509e:	f7ff f9c7 	bl	8004430 <memcpy>
 80050a2:	4631      	mov	r1, r6
 80050a4:	4638      	mov	r0, r7
 80050a6:	f7ff fd5f 	bl	8004b68 <_free_r>
 80050aa:	e7e9      	b.n	8005080 <_realloc_r+0x1c>
 80050ac:	4635      	mov	r5, r6
 80050ae:	e7e7      	b.n	8005080 <_realloc_r+0x1c>

080050b0 <__sfputc_r>:
 80050b0:	6893      	ldr	r3, [r2, #8]
 80050b2:	3b01      	subs	r3, #1
 80050b4:	2b00      	cmp	r3, #0
 80050b6:	b410      	push	{r4}
 80050b8:	6093      	str	r3, [r2, #8]
 80050ba:	da08      	bge.n	80050ce <__sfputc_r+0x1e>
 80050bc:	6994      	ldr	r4, [r2, #24]
 80050be:	42a3      	cmp	r3, r4
 80050c0:	db01      	blt.n	80050c6 <__sfputc_r+0x16>
 80050c2:	290a      	cmp	r1, #10
 80050c4:	d103      	bne.n	80050ce <__sfputc_r+0x1e>
 80050c6:	f85d 4b04 	ldr.w	r4, [sp], #4
 80050ca:	f000 b94b 	b.w	8005364 <__swbuf_r>
 80050ce:	6813      	ldr	r3, [r2, #0]
 80050d0:	1c58      	adds	r0, r3, #1
 80050d2:	6010      	str	r0, [r2, #0]
 80050d4:	7019      	strb	r1, [r3, #0]
 80050d6:	4608      	mov	r0, r1
 80050d8:	f85d 4b04 	ldr.w	r4, [sp], #4
 80050dc:	4770      	bx	lr

080050de <__sfputs_r>:
 80050de:	b5f8      	push	{r3, r4, r5, r6, r7, lr}
 80050e0:	4606      	mov	r6, r0
 80050e2:	460f      	mov	r7, r1
 80050e4:	4614      	mov	r4, r2
 80050e6:	18d5      	adds	r5, r2, r3
 80050e8:	42ac      	cmp	r4, r5
 80050ea:	d101      	bne.n	80050f0 <__sfputs_r+0x12>
 80050ec:	2000      	movs	r0, #0
 80050ee:	e007      	b.n	8005100 <__sfputs_r+0x22>
 80050f0:	f814 1b01 	ldrb.w	r1, [r4], #1
 80050f4:	463a      	mov	r2, r7
 80050f6:	4630      	mov	r0, r6
 80050f8:	f7ff ffda 	bl	80050b0 <__sfputc_r>
 80050fc:	1c43      	adds	r3, r0, #1
 80050fe:	d1f3      	bne.n	80050e8 <__sfputs_r+0xa>
 8005100:	bdf8      	pop	{r3, r4, r5, r6, r7, pc}
	...

08005104 <_vfiprintf_r>:
 8005104:	e92d 4ff0 	stmdb	sp!, {r4, r5, r6, r7, r8, r9, sl, fp, lr}
 8005108:	460d      	mov	r5, r1
 800510a:	b09d      	sub	sp, #116	; 0x74
 800510c:	4614      	mov	r4, r2
 800510e:	4698      	mov	r8, r3
 8005110:	4606      	mov	r6, r0
 8005112:	b118      	cbz	r0, 800511c <_vfiprintf_r+0x18>
 8005114:	6983      	ldr	r3, [r0, #24]
 8005116:	b90b      	cbnz	r3, 800511c <_vfiprintf_r+0x18>
 8005118:	f000 fb14 	bl	8005744 <__sinit>
 800511c:	4b89      	ldr	r3, [pc, #548]	; (8005344 <_vfiprintf_r+0x240>)
 800511e:	429d      	cmp	r5, r3
 8005120:	d11b      	bne.n	800515a <_vfiprintf_r+0x56>
 8005122:	6875      	ldr	r5, [r6, #4]
 8005124:	6e6b      	ldr	r3, [r5, #100]	; 0x64
 8005126:	07d9      	lsls	r1, r3, #31
 8005128:	d405      	bmi.n	8005136 <_vfiprintf_r+0x32>
 800512a:	89ab      	ldrh	r3, [r5, #12]
 800512c:	059a      	lsls	r2, r3, #22
 800512e:	d402      	bmi.n	8005136 <_vfiprintf_r+0x32>
 8005130:	6da8      	ldr	r0, [r5, #88]	; 0x58
 8005132:	f000 fba5 	bl	8005880 <__retarget_lock_acquire_recursive>
 8005136:	89ab      	ldrh	r3, [r5, #12]
 8005138:	071b      	lsls	r3, r3, #28
 800513a:	d501      	bpl.n	8005140 <_vfiprintf_r+0x3c>
 800513c:	692b      	ldr	r3, [r5, #16]
 800513e:	b9eb      	cbnz	r3, 800517c <_vfiprintf_r+0x78>
 8005140:	4629      	mov	r1, r5
 8005142:	4630      	mov	r0, r6
 8005144:	f000 f96e 	bl	8005424 <__swsetup_r>
 8005148:	b1c0      	cbz	r0, 800517c <_vfiprintf_r+0x78>
 800514a:	6e6b      	ldr	r3, [r5, #100]	; 0x64
 800514c:	07dc      	lsls	r4, r3, #31
 800514e:	d50e      	bpl.n	800516e <_vfiprintf_r+0x6a>
 8005150:	f04f 30ff 	mov.w	r0, #4294967295
 8005154:	b01d      	add	sp, #116	; 0x74
 8005156:	e8bd 8ff0 	ldmia.w	sp!, {r4, r5, r6, r7, r8, r9, sl, fp, pc}
 800515a:	4b7b      	ldr	r3, [pc, #492]	; (8005348 <_vfiprintf_r+0x244>)
 800515c:	429d      	cmp	r5, r3
 800515e:	d101      	bne.n	8005164 <_vfiprintf_r+0x60>
 8005160:	68b5      	ldr	r5, [r6, #8]
 8005162:	e7df      	b.n	8005124 <_vfiprintf_r+0x20>
 8005164:	4b79      	ldr	r3, [pc, #484]	; (800534c <_vfiprintf_r+0x248>)
 8005166:	429d      	cmp	r5, r3
 8005168:	bf08      	it	eq
 800516a:	68f5      	ldreq	r5, [r6, #12]
 800516c:	e7da      	b.n	8005124 <_vfiprintf_r+0x20>
 800516e:	89ab      	ldrh	r3, [r5, #12]
 8005170:	0598      	lsls	r0, r3, #22
 8005172:	d4ed      	bmi.n	8005150 <_vfiprintf_r+0x4c>
 8005174:	6da8      	ldr	r0, [r5, #88]	; 0x58
 8005176:	f000 fb84 	bl	8005882 <__retarget_lock_release_recursive>
 800517a:	e7e9      	b.n	8005150 <_vfiprintf_r+0x4c>
 800517c:	2300      	movs	r3, #0
 800517e:	9309      	str	r3, [sp, #36]	; 0x24
 8005180:	2320      	movs	r3, #32
 8005182:	f88d 3029 	strb.w	r3, [sp, #41]	; 0x29
 8005186:	f8cd 800c 	str.w	r8, [sp, #12]
 800518a:	2330      	movs	r3, #48	; 0x30
 800518c:	f8df 81c0 	ldr.w	r8, [pc, #448]	; 8005350 <_vfiprintf_r+0x24c>
 8005190:	f88d 302a 	strb.w	r3, [sp, #42]	; 0x2a
 8005194:	f04f 0901 	mov.w	r9, #1
 8005198:	4623      	mov	r3, r4
 800519a:	469a      	mov	sl, r3
 800519c:	f813 2b01 	ldrb.w	r2, [r3], #1
 80051a0:	b10a      	cbz	r2, 80051a6 <_vfiprintf_r+0xa2>
 80051a2:	2a25      	cmp	r2, #37	; 0x25
 80051a4:	d1f9      	bne.n	800519a <_vfiprintf_r+0x96>
 80051a6:	ebba 0b04 	subs.w	fp, sl, r4
 80051aa:	d00b      	beq.n	80051c4 <_vfiprintf_r+0xc0>
 80051ac:	465b      	mov	r3, fp
 80051ae:	4622      	mov	r2, r4
 80051b0:	4629      	mov	r1, r5
 80051b2:	4630      	mov	r0, r6
 80051b4:	f7ff ff93 	bl	80050de <__sfputs_r>
 80051b8:	3001      	adds	r0, #1
 80051ba:	f000 80aa 	beq.w	8005312 <_vfiprintf_r+0x20e>
 80051be:	9a09      	ldr	r2, [sp, #36]	; 0x24
 80051c0:	445a      	add	r2, fp
 80051c2:	9209      	str	r2, [sp, #36]	; 0x24
 80051c4:	f89a 3000 	ldrb.w	r3, [sl]
 80051c8:	2b00      	cmp	r3, #0
 80051ca:	f000 80a2 	beq.w	8005312 <_vfiprintf_r+0x20e>
 80051ce:	2300      	movs	r3, #0
 80051d0:	f04f 32ff 	mov.w	r2, #4294967295
 80051d4:	e9cd 2305 	strd	r2, r3, [sp, #20]
 80051d8:	f10a 0a01 	add.w	sl, sl, #1
 80051dc:	9304      	str	r3, [sp, #16]
 80051de:	9307      	str	r3, [sp, #28]
 80051e0:	f88d 3053 	strb.w	r3, [sp, #83]	; 0x53
 80051e4:	931a      	str	r3, [sp, #104]	; 0x68
 80051e6:	4654      	mov	r4, sl
 80051e8:	2205      	movs	r2, #5
 80051ea:	f814 1b01 	ldrb.w	r1, [r4], #1
 80051ee:	4858      	ldr	r0, [pc, #352]	; (8005350 <_vfiprintf_r+0x24c>)
 80051f0:	f7fa fff6 	bl	80001e0 <memchr>
 80051f4:	9a04      	ldr	r2, [sp, #16]
 80051f6:	b9d8      	cbnz	r0, 8005230 <_vfiprintf_r+0x12c>
 80051f8:	06d1      	lsls	r1, r2, #27
 80051fa:	bf44      	itt	mi
 80051fc:	2320      	movmi	r3, #32
 80051fe:	f88d 3053 	strbmi.w	r3, [sp, #83]	; 0x53
 8005202:	0713      	lsls	r3, r2, #28
 8005204:	bf44      	itt	mi
 8005206:	232b      	movmi	r3, #43	; 0x2b
 8005208:	f88d 3053 	strbmi.w	r3, [sp, #83]	; 0x53
 800520c:	f89a 3000 	ldrb.w	r3, [sl]
 8005210:	2b2a      	cmp	r3, #42	; 0x2a
 8005212:	d015      	beq.n	8005240 <_vfiprintf_r+0x13c>
 8005214:	9a07      	ldr	r2, [sp, #28]
 8005216:	4654      	mov	r4, sl
 8005218:	2000      	movs	r0, #0
 800521a:	f04f 0c0a 	mov.w	ip, #10
 800521e:	4621      	mov	r1, r4
 8005220:	f811 3b01 	ldrb.w	r3, [r1], #1
 8005224:	3b30      	subs	r3, #48	; 0x30
 8005226:	2b09      	cmp	r3, #9
 8005228:	d94e      	bls.n	80052c8 <_vfiprintf_r+0x1c4>
 800522a:	b1b0      	cbz	r0, 800525a <_vfiprintf_r+0x156>
 800522c:	9207      	str	r2, [sp, #28]
 800522e:	e014      	b.n	800525a <_vfiprintf_r+0x156>
 8005230:	eba0 0308 	sub.w	r3, r0, r8
 8005234:	fa09 f303 	lsl.w	r3, r9, r3
 8005238:	4313      	orrs	r3, r2
 800523a:	9304      	str	r3, [sp, #16]
 800523c:	46a2      	mov	sl, r4
 800523e:	e7d2      	b.n	80051e6 <_vfiprintf_r+0xe2>
 8005240:	9b03      	ldr	r3, [sp, #12]
 8005242:	1d19      	adds	r1, r3, #4
 8005244:	681b      	ldr	r3, [r3, #0]
 8005246:	9103      	str	r1, [sp, #12]
 8005248:	2b00      	cmp	r3, #0
 800524a:	bfbb      	ittet	lt
 800524c:	425b      	neglt	r3, r3
 800524e:	f042 0202 	orrlt.w	r2, r2, #2
 8005252:	9307      	strge	r3, [sp, #28]
 8005254:	9307      	strlt	r3, [sp, #28]
 8005256:	bfb8      	it	lt
 8005258:	9204      	strlt	r2, [sp, #16]
 800525a:	7823      	ldrb	r3, [r4, #0]
 800525c:	2b2e      	cmp	r3, #46	; 0x2e
 800525e:	d10c      	bne.n	800527a <_vfiprintf_r+0x176>
 8005260:	7863      	ldrb	r3, [r4, #1]
 8005262:	2b2a      	cmp	r3, #42	; 0x2a
 8005264:	d135      	bne.n	80052d2 <_vfiprintf_r+0x1ce>
 8005266:	9b03      	ldr	r3, [sp, #12]
 8005268:	1d1a      	adds	r2, r3, #4
 800526a:	681b      	ldr	r3, [r3, #0]
 800526c:	9203      	str	r2, [sp, #12]
 800526e:	2b00      	cmp	r3, #0
 8005270:	bfb8      	it	lt
 8005272:	f04f 33ff 	movlt.w	r3, #4294967295
 8005276:	3402      	adds	r4, #2
 8005278:	9305      	str	r3, [sp, #20]
 800527a:	f8df a0e4 	ldr.w	sl, [pc, #228]	; 8005360 <_vfiprintf_r+0x25c>
 800527e:	7821      	ldrb	r1, [r4, #0]
 8005280:	2203      	movs	r2, #3
 8005282:	4650      	mov	r0, sl
 8005284:	f7fa ffac 	bl	80001e0 <memchr>
 8005288:	b140      	cbz	r0, 800529c <_vfiprintf_r+0x198>
 800528a:	2340      	movs	r3, #64	; 0x40
 800528c:	eba0 000a 	sub.w	r0, r0, sl
 8005290:	fa03 f000 	lsl.w	r0, r3, r0
 8005294:	9b04      	ldr	r3, [sp, #16]
 8005296:	4303      	orrs	r3, r0
 8005298:	3401      	adds	r4, #1
 800529a:	9304      	str	r3, [sp, #16]
 800529c:	f814 1b01 	ldrb.w	r1, [r4], #1
 80052a0:	482c      	ldr	r0, [pc, #176]	; (8005354 <_vfiprintf_r+0x250>)
 80052a2:	f88d 1028 	strb.w	r1, [sp, #40]	; 0x28
 80052a6:	2206      	movs	r2, #6
 80052a8:	f7fa ff9a 	bl	80001e0 <memchr>
 80052ac:	2800      	cmp	r0, #0
 80052ae:	d03f      	beq.n	8005330 <_vfiprintf_r+0x22c>
 80052b0:	4b29      	ldr	r3, [pc, #164]	; (8005358 <_vfiprintf_r+0x254>)
 80052b2:	bb1b      	cbnz	r3, 80052fc <_vfiprintf_r+0x1f8>
 80052b4:	9b03      	ldr	r3, [sp, #12]
 80052b6:	3307      	adds	r3, #7
 80052b8:	f023 0307 	bic.w	r3, r3, #7
 80052bc:	3308      	adds	r3, #8
 80052be:	9303      	str	r3, [sp, #12]
 80052c0:	9b09      	ldr	r3, [sp, #36]	; 0x24
 80052c2:	443b      	add	r3, r7
 80052c4:	9309      	str	r3, [sp, #36]	; 0x24
 80052c6:	e767      	b.n	8005198 <_vfiprintf_r+0x94>
 80052c8:	fb0c 3202 	mla	r2, ip, r2, r3
 80052cc:	460c      	mov	r4, r1
 80052ce:	2001      	movs	r0, #1
 80052d0:	e7a5      	b.n	800521e <_vfiprintf_r+0x11a>
 80052d2:	2300      	movs	r3, #0
 80052d4:	3401      	adds	r4, #1
 80052d6:	9305      	str	r3, [sp, #20]
 80052d8:	4619      	mov	r1, r3
 80052da:	f04f 0c0a 	mov.w	ip, #10
 80052de:	4620      	mov	r0, r4
 80052e0:	f810 2b01 	ldrb.w	r2, [r0], #1
 80052e4:	3a30      	subs	r2, #48	; 0x30
 80052e6:	2a09      	cmp	r2, #9
 80052e8:	d903      	bls.n	80052f2 <_vfiprintf_r+0x1ee>
 80052ea:	2b00      	cmp	r3, #0
 80052ec:	d0c5      	beq.n	800527a <_vfiprintf_r+0x176>
 80052ee:	9105      	str	r1, [sp, #20]
 80052f0:	e7c3      	b.n	800527a <_vfiprintf_r+0x176>
 80052f2:	fb0c 2101 	mla	r1, ip, r1, r2
 80052f6:	4604      	mov	r4, r0
 80052f8:	2301      	movs	r3, #1
 80052fa:	e7f0      	b.n	80052de <_vfiprintf_r+0x1da>
 80052fc:	ab03      	add	r3, sp, #12
 80052fe:	9300      	str	r3, [sp, #0]
 8005300:	462a      	mov	r2, r5
 8005302:	4b16      	ldr	r3, [pc, #88]	; (800535c <_vfiprintf_r+0x258>)
 8005304:	a904      	add	r1, sp, #16
 8005306:	4630      	mov	r0, r6
 8005308:	f7fd fe22 	bl	8002f50 <_printf_float>
 800530c:	4607      	mov	r7, r0
 800530e:	1c78      	adds	r0, r7, #1
 8005310:	d1d6      	bne.n	80052c0 <_vfiprintf_r+0x1bc>
 8005312:	6e6b      	ldr	r3, [r5, #100]	; 0x64
 8005314:	07d9      	lsls	r1, r3, #31
 8005316:	d405      	bmi.n	8005324 <_vfiprintf_r+0x220>
 8005318:	89ab      	ldrh	r3, [r5, #12]
 800531a:	059a      	lsls	r2, r3, #22
 800531c:	d402      	bmi.n	8005324 <_vfiprintf_r+0x220>
 800531e:	6da8      	ldr	r0, [r5, #88]	; 0x58
 8005320:	f000 faaf 	bl	8005882 <__retarget_lock_release_recursive>
 8005324:	89ab      	ldrh	r3, [r5, #12]
 8005326:	065b      	lsls	r3, r3, #25
 8005328:	f53f af12 	bmi.w	8005150 <_vfiprintf_r+0x4c>
 800532c:	9809      	ldr	r0, [sp, #36]	; 0x24
 800532e:	e711      	b.n	8005154 <_vfiprintf_r+0x50>
 8005330:	ab03      	add	r3, sp, #12
 8005332:	9300      	str	r3, [sp, #0]
 8005334:	462a      	mov	r2, r5
 8005336:	4b09      	ldr	r3, [pc, #36]	; (800535c <_vfiprintf_r+0x258>)
 8005338:	a904      	add	r1, sp, #16
 800533a:	4630      	mov	r0, r6
 800533c:	f7fe f8ac 	bl	8003498 <_printf_i>
 8005340:	e7e4      	b.n	800530c <_vfiprintf_r+0x208>
 8005342:	bf00      	nop
 8005344:	08005f74 	.word	0x08005f74
 8005348:	08005f94 	.word	0x08005f94
 800534c:	08005f54 	.word	0x08005f54
 8005350:	08005dfc 	.word	0x08005dfc
 8005354:	08005e06 	.word	0x08005e06
 8005358:	08002f51 	.word	0x08002f51
 800535c:	080050df 	.word	0x080050df
 8005360:	08005e02 	.word	0x08005e02

08005364 <__swbuf_r>:
 8005364:	b5f8      	push	{r3, r4, r5, r6, r7, lr}
 8005366:	460e      	mov	r6, r1
 8005368:	4614      	mov	r4, r2
 800536a:	4605      	mov	r5, r0
 800536c:	b118      	cbz	r0, 8005376 <__swbuf_r+0x12>
 800536e:	6983      	ldr	r3, [r0, #24]
 8005370:	b90b      	cbnz	r3, 8005376 <__swbuf_r+0x12>
 8005372:	f000 f9e7 	bl	8005744 <__sinit>
 8005376:	4b21      	ldr	r3, [pc, #132]	; (80053fc <__swbuf_r+0x98>)
 8005378:	429c      	cmp	r4, r3
 800537a:	d12b      	bne.n	80053d4 <__swbuf_r+0x70>
 800537c:	686c      	ldr	r4, [r5, #4]
 800537e:	69a3      	ldr	r3, [r4, #24]
 8005380:	60a3      	str	r3, [r4, #8]
 8005382:	89a3      	ldrh	r3, [r4, #12]
 8005384:	071a      	lsls	r2, r3, #28
 8005386:	d52f      	bpl.n	80053e8 <__swbuf_r+0x84>
 8005388:	6923      	ldr	r3, [r4, #16]
 800538a:	b36b      	cbz	r3, 80053e8 <__swbuf_r+0x84>
 800538c:	6923      	ldr	r3, [r4, #16]
 800538e:	6820      	ldr	r0, [r4, #0]
 8005390:	1ac0      	subs	r0, r0, r3
 8005392:	6963      	ldr	r3, [r4, #20]
 8005394:	b2f6      	uxtb	r6, r6
 8005396:	4283      	cmp	r3, r0
 8005398:	4637      	mov	r7, r6
 800539a:	dc04      	bgt.n	80053a6 <__swbuf_r+0x42>
 800539c:	4621      	mov	r1, r4
 800539e:	4628      	mov	r0, r5
 80053a0:	f000 f93c 	bl	800561c <_fflush_r>
 80053a4:	bb30      	cbnz	r0, 80053f4 <__swbuf_r+0x90>
 80053a6:	68a3      	ldr	r3, [r4, #8]
 80053a8:	3b01      	subs	r3, #1
 80053aa:	60a3      	str	r3, [r4, #8]
 80053ac:	6823      	ldr	r3, [r4, #0]
 80053ae:	1c5a      	adds	r2, r3, #1
 80053b0:	6022      	str	r2, [r4, #0]
 80053b2:	701e      	strb	r6, [r3, #0]
 80053b4:	6963      	ldr	r3, [r4, #20]
 80053b6:	3001      	adds	r0, #1
 80053b8:	4283      	cmp	r3, r0
 80053ba:	d004      	beq.n	80053c6 <__swbuf_r+0x62>
 80053bc:	89a3      	ldrh	r3, [r4, #12]
 80053be:	07db      	lsls	r3, r3, #31
 80053c0:	d506      	bpl.n	80053d0 <__swbuf_r+0x6c>
 80053c2:	2e0a      	cmp	r6, #10
 80053c4:	d104      	bne.n	80053d0 <__swbuf_r+0x6c>
 80053c6:	4621      	mov	r1, r4
 80053c8:	4628      	mov	r0, r5
 80053ca:	f000 f927 	bl	800561c <_fflush_r>
 80053ce:	b988      	cbnz	r0, 80053f4 <__swbuf_r+0x90>
 80053d0:	4638      	mov	r0, r7
 80053d2:	bdf8      	pop	{r3, r4, r5, r6, r7, pc}
 80053d4:	4b0a      	ldr	r3, [pc, #40]	; (8005400 <__swbuf_r+0x9c>)
 80053d6:	429c      	cmp	r4, r3
 80053d8:	d101      	bne.n	80053de <__swbuf_r+0x7a>
 80053da:	68ac      	ldr	r4, [r5, #8]
 80053dc:	e7cf      	b.n	800537e <__swbuf_r+0x1a>
 80053de:	4b09      	ldr	r3, [pc, #36]	; (8005404 <__swbuf_r+0xa0>)
 80053e0:	429c      	cmp	r4, r3
 80053e2:	bf08      	it	eq
 80053e4:	68ec      	ldreq	r4, [r5, #12]
 80053e6:	e7ca      	b.n	800537e <__swbuf_r+0x1a>
 80053e8:	4621      	mov	r1, r4
 80053ea:	4628      	mov	r0, r5
 80053ec:	f000 f81a 	bl	8005424 <__swsetup_r>
 80053f0:	2800      	cmp	r0, #0
 80053f2:	d0cb      	beq.n	800538c <__swbuf_r+0x28>
 80053f4:	f04f 37ff 	mov.w	r7, #4294967295
 80053f8:	e7ea      	b.n	80053d0 <__swbuf_r+0x6c>
 80053fa:	bf00      	nop
 80053fc:	08005f74 	.word	0x08005f74
 8005400:	08005f94 	.word	0x08005f94
 8005404:	08005f54 	.word	0x08005f54

08005408 <__ascii_wctomb>:
 8005408:	b149      	cbz	r1, 800541e <__ascii_wctomb+0x16>
 800540a:	2aff      	cmp	r2, #255	; 0xff
 800540c:	bf85      	ittet	hi
 800540e:	238a      	movhi	r3, #138	; 0x8a
 8005410:	6003      	strhi	r3, [r0, #0]
 8005412:	700a      	strbls	r2, [r1, #0]
 8005414:	f04f 30ff 	movhi.w	r0, #4294967295
 8005418:	bf98      	it	ls
 800541a:	2001      	movls	r0, #1
 800541c:	4770      	bx	lr
 800541e:	4608      	mov	r0, r1
 8005420:	4770      	bx	lr
	...

08005424 <__swsetup_r>:
 8005424:	4b32      	ldr	r3, [pc, #200]	; (80054f0 <__swsetup_r+0xcc>)
 8005426:	b570      	push	{r4, r5, r6, lr}
 8005428:	681d      	ldr	r5, [r3, #0]
 800542a:	4606      	mov	r6, r0
 800542c:	460c      	mov	r4, r1
 800542e:	b125      	cbz	r5, 800543a <__swsetup_r+0x16>
 8005430:	69ab      	ldr	r3, [r5, #24]
 8005432:	b913      	cbnz	r3, 800543a <__swsetup_r+0x16>
 8005434:	4628      	mov	r0, r5
 8005436:	f000 f985 	bl	8005744 <__sinit>
 800543a:	4b2e      	ldr	r3, [pc, #184]	; (80054f4 <__swsetup_r+0xd0>)
 800543c:	429c      	cmp	r4, r3
 800543e:	d10f      	bne.n	8005460 <__swsetup_r+0x3c>
 8005440:	686c      	ldr	r4, [r5, #4]
 8005442:	89a3      	ldrh	r3, [r4, #12]
 8005444:	f9b4 200c 	ldrsh.w	r2, [r4, #12]
 8005448:	0719      	lsls	r1, r3, #28
 800544a:	d42c      	bmi.n	80054a6 <__swsetup_r+0x82>
 800544c:	06dd      	lsls	r5, r3, #27
 800544e:	d411      	bmi.n	8005474 <__swsetup_r+0x50>
 8005450:	2309      	movs	r3, #9
 8005452:	6033      	str	r3, [r6, #0]
 8005454:	f042 0340 	orr.w	r3, r2, #64	; 0x40
 8005458:	81a3      	strh	r3, [r4, #12]
 800545a:	f04f 30ff 	mov.w	r0, #4294967295
 800545e:	e03e      	b.n	80054de <__swsetup_r+0xba>
 8005460:	4b25      	ldr	r3, [pc, #148]	; (80054f8 <__swsetup_r+0xd4>)
 8005462:	429c      	cmp	r4, r3
 8005464:	d101      	bne.n	800546a <__swsetup_r+0x46>
 8005466:	68ac      	ldr	r4, [r5, #8]
 8005468:	e7eb      	b.n	8005442 <__swsetup_r+0x1e>
 800546a:	4b24      	ldr	r3, [pc, #144]	; (80054fc <__swsetup_r+0xd8>)
 800546c:	429c      	cmp	r4, r3
 800546e:	bf08      	it	eq
 8005470:	68ec      	ldreq	r4, [r5, #12]
 8005472:	e7e6      	b.n	8005442 <__swsetup_r+0x1e>
 8005474:	0758      	lsls	r0, r3, #29
 8005476:	d512      	bpl.n	800549e <__swsetup_r+0x7a>
 8005478:	6b61      	ldr	r1, [r4, #52]	; 0x34
 800547a:	b141      	cbz	r1, 800548e <__swsetup_r+0x6a>
 800547c:	f104 0344 	add.w	r3, r4, #68	; 0x44
 8005480:	4299      	cmp	r1, r3
 8005482:	d002      	beq.n	800548a <__swsetup_r+0x66>
 8005484:	4630      	mov	r0, r6
 8005486:	f7ff fb6f 	bl	8004b68 <_free_r>
 800548a:	2300      	movs	r3, #0
 800548c:	6363      	str	r3, [r4, #52]	; 0x34
 800548e:	89a3      	ldrh	r3, [r4, #12]
 8005490:	f023 0324 	bic.w	r3, r3, #36	; 0x24
 8005494:	81a3      	strh	r3, [r4, #12]
 8005496:	2300      	movs	r3, #0
 8005498:	6063      	str	r3, [r4, #4]
 800549a:	6923      	ldr	r3, [r4, #16]
 800549c:	6023      	str	r3, [r4, #0]
 800549e:	89a3      	ldrh	r3, [r4, #12]
 80054a0:	f043 0308 	orr.w	r3, r3, #8
 80054a4:	81a3      	strh	r3, [r4, #12]
 80054a6:	6923      	ldr	r3, [r4, #16]
 80054a8:	b94b      	cbnz	r3, 80054be <__swsetup_r+0x9a>
 80054aa:	89a3      	ldrh	r3, [r4, #12]
 80054ac:	f403 7320 	and.w	r3, r3, #640	; 0x280
 80054b0:	f5b3 7f00 	cmp.w	r3, #512	; 0x200
 80054b4:	d003      	beq.n	80054be <__swsetup_r+0x9a>
 80054b6:	4621      	mov	r1, r4
 80054b8:	4630      	mov	r0, r6
 80054ba:	f000 fa07 	bl	80058cc <__smakebuf_r>
 80054be:	89a0      	ldrh	r0, [r4, #12]
 80054c0:	f9b4 200c 	ldrsh.w	r2, [r4, #12]
 80054c4:	f010 0301 	ands.w	r3, r0, #1
 80054c8:	d00a      	beq.n	80054e0 <__swsetup_r+0xbc>
 80054ca:	2300      	movs	r3, #0
 80054cc:	60a3      	str	r3, [r4, #8]
 80054ce:	6963      	ldr	r3, [r4, #20]
 80054d0:	425b      	negs	r3, r3
 80054d2:	61a3      	str	r3, [r4, #24]
 80054d4:	6923      	ldr	r3, [r4, #16]
 80054d6:	b943      	cbnz	r3, 80054ea <__swsetup_r+0xc6>
 80054d8:	f010 0080 	ands.w	r0, r0, #128	; 0x80
 80054dc:	d1ba      	bne.n	8005454 <__swsetup_r+0x30>
 80054de:	bd70      	pop	{r4, r5, r6, pc}
 80054e0:	0781      	lsls	r1, r0, #30
 80054e2:	bf58      	it	pl
 80054e4:	6963      	ldrpl	r3, [r4, #20]
 80054e6:	60a3      	str	r3, [r4, #8]
 80054e8:	e7f4      	b.n	80054d4 <__swsetup_r+0xb0>
 80054ea:	2000      	movs	r0, #0
 80054ec:	e7f7      	b.n	80054de <__swsetup_r+0xba>
 80054ee:	bf00      	nop
 80054f0:	2000000c 	.word	0x2000000c
 80054f4:	08005f74 	.word	0x08005f74
 80054f8:	08005f94 	.word	0x08005f94
 80054fc:	08005f54 	.word	0x08005f54

08005500 <abort>:
 8005500:	b508      	push	{r3, lr}
 8005502:	2006      	movs	r0, #6
 8005504:	f000 fa52 	bl	80059ac <raise>
 8005508:	2001      	movs	r0, #1
 800550a:	f7fc fa3b 	bl	8001984 <_exit>
	...

08005510 <__sflush_r>:
 8005510:	898a      	ldrh	r2, [r1, #12]
 8005512:	e92d 41f0 	stmdb	sp!, {r4, r5, r6, r7, r8, lr}
 8005516:	4605      	mov	r5, r0
 8005518:	0710      	lsls	r0, r2, #28
 800551a:	460c      	mov	r4, r1
 800551c:	d458      	bmi.n	80055d0 <__sflush_r+0xc0>
 800551e:	684b      	ldr	r3, [r1, #4]
 8005520:	2b00      	cmp	r3, #0
 8005522:	dc05      	bgt.n	8005530 <__sflush_r+0x20>
 8005524:	6c0b      	ldr	r3, [r1, #64]	; 0x40
 8005526:	2b00      	cmp	r3, #0
 8005528:	dc02      	bgt.n	8005530 <__sflush_r+0x20>
 800552a:	2000      	movs	r0, #0
 800552c:	e8bd 81f0 	ldmia.w	sp!, {r4, r5, r6, r7, r8, pc}
 8005530:	6ae6      	ldr	r6, [r4, #44]	; 0x2c
 8005532:	2e00      	cmp	r6, #0
 8005534:	d0f9      	beq.n	800552a <__sflush_r+0x1a>
 8005536:	2300      	movs	r3, #0
 8005538:	f412 5280 	ands.w	r2, r2, #4096	; 0x1000
 800553c:	682f      	ldr	r7, [r5, #0]
 800553e:	602b      	str	r3, [r5, #0]
 8005540:	d032      	beq.n	80055a8 <__sflush_r+0x98>
 8005542:	6d60      	ldr	r0, [r4, #84]	; 0x54
 8005544:	89a3      	ldrh	r3, [r4, #12]
 8005546:	075a      	lsls	r2, r3, #29
 8005548:	d505      	bpl.n	8005556 <__sflush_r+0x46>
 800554a:	6863      	ldr	r3, [r4, #4]
 800554c:	1ac0      	subs	r0, r0, r3
 800554e:	6b63      	ldr	r3, [r4, #52]	; 0x34
 8005550:	b10b      	cbz	r3, 8005556 <__sflush_r+0x46>
 8005552:	6c23      	ldr	r3, [r4, #64]	; 0x40
 8005554:	1ac0      	subs	r0, r0, r3
 8005556:	2300      	movs	r3, #0
 8005558:	4602      	mov	r2, r0
 800555a:	6ae6      	ldr	r6, [r4, #44]	; 0x2c
 800555c:	6a21      	ldr	r1, [r4, #32]
 800555e:	4628      	mov	r0, r5
 8005560:	47b0      	blx	r6
 8005562:	1c43      	adds	r3, r0, #1
 8005564:	89a3      	ldrh	r3, [r4, #12]
 8005566:	d106      	bne.n	8005576 <__sflush_r+0x66>
 8005568:	6829      	ldr	r1, [r5, #0]
 800556a:	291d      	cmp	r1, #29
 800556c:	d82c      	bhi.n	80055c8 <__sflush_r+0xb8>
 800556e:	4a2a      	ldr	r2, [pc, #168]	; (8005618 <__sflush_r+0x108>)
 8005570:	40ca      	lsrs	r2, r1
 8005572:	07d6      	lsls	r6, r2, #31
 8005574:	d528      	bpl.n	80055c8 <__sflush_r+0xb8>
 8005576:	2200      	movs	r2, #0
 8005578:	6062      	str	r2, [r4, #4]
 800557a:	04d9      	lsls	r1, r3, #19
 800557c:	6922      	ldr	r2, [r4, #16]
 800557e:	6022      	str	r2, [r4, #0]
 8005580:	d504      	bpl.n	800558c <__sflush_r+0x7c>
 8005582:	1c42      	adds	r2, r0, #1
 8005584:	d101      	bne.n	800558a <__sflush_r+0x7a>
 8005586:	682b      	ldr	r3, [r5, #0]
 8005588:	b903      	cbnz	r3, 800558c <__sflush_r+0x7c>
 800558a:	6560      	str	r0, [r4, #84]	; 0x54
 800558c:	6b61      	ldr	r1, [r4, #52]	; 0x34
 800558e:	602f      	str	r7, [r5, #0]
 8005590:	2900      	cmp	r1, #0
 8005592:	d0ca      	beq.n	800552a <__sflush_r+0x1a>
 8005594:	f104 0344 	add.w	r3, r4, #68	; 0x44
 8005598:	4299      	cmp	r1, r3
 800559a:	d002      	beq.n	80055a2 <__sflush_r+0x92>
 800559c:	4628      	mov	r0, r5
 800559e:	f7ff fae3 	bl	8004b68 <_free_r>
 80055a2:	2000      	movs	r0, #0
 80055a4:	6360      	str	r0, [r4, #52]	; 0x34
 80055a6:	e7c1      	b.n	800552c <__sflush_r+0x1c>
 80055a8:	6a21      	ldr	r1, [r4, #32]
 80055aa:	2301      	movs	r3, #1
 80055ac:	4628      	mov	r0, r5
 80055ae:	47b0      	blx	r6
 80055b0:	1c41      	adds	r1, r0, #1
 80055b2:	d1c7      	bne.n	8005544 <__sflush_r+0x34>
 80055b4:	682b      	ldr	r3, [r5, #0]
 80055b6:	2b00      	cmp	r3, #0
 80055b8:	d0c4      	beq.n	8005544 <__sflush_r+0x34>
 80055ba:	2b1d      	cmp	r3, #29
 80055bc:	d001      	beq.n	80055c2 <__sflush_r+0xb2>
 80055be:	2b16      	cmp	r3, #22
 80055c0:	d101      	bne.n	80055c6 <__sflush_r+0xb6>
 80055c2:	602f      	str	r7, [r5, #0]
 80055c4:	e7b1      	b.n	800552a <__sflush_r+0x1a>
 80055c6:	89a3      	ldrh	r3, [r4, #12]
 80055c8:	f043 0340 	orr.w	r3, r3, #64	; 0x40
 80055cc:	81a3      	strh	r3, [r4, #12]
 80055ce:	e7ad      	b.n	800552c <__sflush_r+0x1c>
 80055d0:	690f      	ldr	r7, [r1, #16]
 80055d2:	2f00      	cmp	r7, #0
 80055d4:	d0a9      	beq.n	800552a <__sflush_r+0x1a>
 80055d6:	0793      	lsls	r3, r2, #30
 80055d8:	680e      	ldr	r6, [r1, #0]
 80055da:	bf08      	it	eq
 80055dc:	694b      	ldreq	r3, [r1, #20]
 80055de:	600f      	str	r7, [r1, #0]
 80055e0:	bf18      	it	ne
 80055e2:	2300      	movne	r3, #0
 80055e4:	eba6 0807 	sub.w	r8, r6, r7
 80055e8:	608b      	str	r3, [r1, #8]
 80055ea:	f1b8 0f00 	cmp.w	r8, #0
 80055ee:	dd9c      	ble.n	800552a <__sflush_r+0x1a>
 80055f0:	6a21      	ldr	r1, [r4, #32]
 80055f2:	6aa6      	ldr	r6, [r4, #40]	; 0x28
 80055f4:	4643      	mov	r3, r8
 80055f6:	463a      	mov	r2, r7
 80055f8:	4628      	mov	r0, r5
 80055fa:	47b0      	blx	r6
 80055fc:	2800      	cmp	r0, #0
 80055fe:	dc06      	bgt.n	800560e <__sflush_r+0xfe>
 8005600:	89a3      	ldrh	r3, [r4, #12]
 8005602:	f043 0340 	orr.w	r3, r3, #64	; 0x40
 8005606:	81a3      	strh	r3, [r4, #12]
 8005608:	f04f 30ff 	mov.w	r0, #4294967295
 800560c:	e78e      	b.n	800552c <__sflush_r+0x1c>
 800560e:	4407      	add	r7, r0
 8005610:	eba8 0800 	sub.w	r8, r8, r0
 8005614:	e7e9      	b.n	80055ea <__sflush_r+0xda>
 8005616:	bf00      	nop
 8005618:	20400001 	.word	0x20400001

0800561c <_fflush_r>:
 800561c:	b538      	push	{r3, r4, r5, lr}
 800561e:	690b      	ldr	r3, [r1, #16]
 8005620:	4605      	mov	r5, r0
 8005622:	460c      	mov	r4, r1
 8005624:	b913      	cbnz	r3, 800562c <_fflush_r+0x10>
 8005626:	2500      	movs	r5, #0
 8005628:	4628      	mov	r0, r5
 800562a:	bd38      	pop	{r3, r4, r5, pc}
 800562c:	b118      	cbz	r0, 8005636 <_fflush_r+0x1a>
 800562e:	6983      	ldr	r3, [r0, #24]
 8005630:	b90b      	cbnz	r3, 8005636 <_fflush_r+0x1a>
 8005632:	f000 f887 	bl	8005744 <__sinit>
 8005636:	4b14      	ldr	r3, [pc, #80]	; (8005688 <_fflush_r+0x6c>)
 8005638:	429c      	cmp	r4, r3
 800563a:	d11b      	bne.n	8005674 <_fflush_r+0x58>
 800563c:	686c      	ldr	r4, [r5, #4]
 800563e:	f9b4 300c 	ldrsh.w	r3, [r4, #12]
 8005642:	2b00      	cmp	r3, #0
 8005644:	d0ef      	beq.n	8005626 <_fflush_r+0xa>
 8005646:	6e62      	ldr	r2, [r4, #100]	; 0x64
 8005648:	07d0      	lsls	r0, r2, #31
 800564a:	d404      	bmi.n	8005656 <_fflush_r+0x3a>
 800564c:	0599      	lsls	r1, r3, #22
 800564e:	d402      	bmi.n	8005656 <_fflush_r+0x3a>
 8005650:	6da0      	ldr	r0, [r4, #88]	; 0x58
 8005652:	f000 f915 	bl	8005880 <__retarget_lock_acquire_recursive>
 8005656:	4628      	mov	r0, r5
 8005658:	4621      	mov	r1, r4
 800565a:	f7ff ff59 	bl	8005510 <__sflush_r>
 800565e:	6e63      	ldr	r3, [r4, #100]	; 0x64
 8005660:	07da      	lsls	r2, r3, #31
 8005662:	4605      	mov	r5, r0
 8005664:	d4e0      	bmi.n	8005628 <_fflush_r+0xc>
 8005666:	89a3      	ldrh	r3, [r4, #12]
 8005668:	059b      	lsls	r3, r3, #22
 800566a:	d4dd      	bmi.n	8005628 <_fflush_r+0xc>
 800566c:	6da0      	ldr	r0, [r4, #88]	; 0x58
 800566e:	f000 f908 	bl	8005882 <__retarget_lock_release_recursive>
 8005672:	e7d9      	b.n	8005628 <_fflush_r+0xc>
 8005674:	4b05      	ldr	r3, [pc, #20]	; (800568c <_fflush_r+0x70>)
 8005676:	429c      	cmp	r4, r3
 8005678:	d101      	bne.n	800567e <_fflush_r+0x62>
 800567a:	68ac      	ldr	r4, [r5, #8]
 800567c:	e7df      	b.n	800563e <_fflush_r+0x22>
 800567e:	4b04      	ldr	r3, [pc, #16]	; (8005690 <_fflush_r+0x74>)
 8005680:	429c      	cmp	r4, r3
 8005682:	bf08      	it	eq
 8005684:	68ec      	ldreq	r4, [r5, #12]
 8005686:	e7da      	b.n	800563e <_fflush_r+0x22>
 8005688:	08005f74 	.word	0x08005f74
 800568c:	08005f94 	.word	0x08005f94
 8005690:	08005f54 	.word	0x08005f54

08005694 <std>:
 8005694:	2300      	movs	r3, #0
 8005696:	b510      	push	{r4, lr}
 8005698:	4604      	mov	r4, r0
 800569a:	e9c0 3300 	strd	r3, r3, [r0]
 800569e:	e9c0 3304 	strd	r3, r3, [r0, #16]
 80056a2:	6083      	str	r3, [r0, #8]
 80056a4:	8181      	strh	r1, [r0, #12]
 80056a6:	6643      	str	r3, [r0, #100]	; 0x64
 80056a8:	81c2      	strh	r2, [r0, #14]
 80056aa:	6183      	str	r3, [r0, #24]
 80056ac:	4619      	mov	r1, r3
 80056ae:	2208      	movs	r2, #8
 80056b0:	305c      	adds	r0, #92	; 0x5c
 80056b2:	f7fd fba5 	bl	8002e00 <memset>
 80056b6:	4b05      	ldr	r3, [pc, #20]	; (80056cc <std+0x38>)
 80056b8:	6263      	str	r3, [r4, #36]	; 0x24
 80056ba:	4b05      	ldr	r3, [pc, #20]	; (80056d0 <std+0x3c>)
 80056bc:	62a3      	str	r3, [r4, #40]	; 0x28
 80056be:	4b05      	ldr	r3, [pc, #20]	; (80056d4 <std+0x40>)
 80056c0:	62e3      	str	r3, [r4, #44]	; 0x2c
 80056c2:	4b05      	ldr	r3, [pc, #20]	; (80056d8 <std+0x44>)
 80056c4:	6224      	str	r4, [r4, #32]
 80056c6:	6323      	str	r3, [r4, #48]	; 0x30
 80056c8:	bd10      	pop	{r4, pc}
 80056ca:	bf00      	nop
 80056cc:	080059e5 	.word	0x080059e5
 80056d0:	08005a07 	.word	0x08005a07
 80056d4:	08005a3f 	.word	0x08005a3f
 80056d8:	08005a63 	.word	0x08005a63

080056dc <_cleanup_r>:
 80056dc:	4901      	ldr	r1, [pc, #4]	; (80056e4 <_cleanup_r+0x8>)
 80056de:	f000 b8af 	b.w	8005840 <_fwalk_reent>
 80056e2:	bf00      	nop
 80056e4:	0800561d 	.word	0x0800561d

080056e8 <__sfmoreglue>:
 80056e8:	b570      	push	{r4, r5, r6, lr}
 80056ea:	1e4a      	subs	r2, r1, #1
 80056ec:	2568      	movs	r5, #104	; 0x68
 80056ee:	4355      	muls	r5, r2
 80056f0:	460e      	mov	r6, r1
 80056f2:	f105 0174 	add.w	r1, r5, #116	; 0x74
 80056f6:	f7ff fa87 	bl	8004c08 <_malloc_r>
 80056fa:	4604      	mov	r4, r0
 80056fc:	b140      	cbz	r0, 8005710 <__sfmoreglue+0x28>
 80056fe:	2100      	movs	r1, #0
 8005700:	e9c0 1600 	strd	r1, r6, [r0]
 8005704:	300c      	adds	r0, #12
 8005706:	60a0      	str	r0, [r4, #8]
 8005708:	f105 0268 	add.w	r2, r5, #104	; 0x68
 800570c:	f7fd fb78 	bl	8002e00 <memset>
 8005710:	4620      	mov	r0, r4
 8005712:	bd70      	pop	{r4, r5, r6, pc}

08005714 <__sfp_lock_acquire>:
 8005714:	4801      	ldr	r0, [pc, #4]	; (800571c <__sfp_lock_acquire+0x8>)
 8005716:	f000 b8b3 	b.w	8005880 <__retarget_lock_acquire_recursive>
 800571a:	bf00      	nop
 800571c:	20000494 	.word	0x20000494

08005720 <__sfp_lock_release>:
 8005720:	4801      	ldr	r0, [pc, #4]	; (8005728 <__sfp_lock_release+0x8>)
 8005722:	f000 b8ae 	b.w	8005882 <__retarget_lock_release_recursive>
 8005726:	bf00      	nop
 8005728:	20000494 	.word	0x20000494

0800572c <__sinit_lock_acquire>:
 800572c:	4801      	ldr	r0, [pc, #4]	; (8005734 <__sinit_lock_acquire+0x8>)
 800572e:	f000 b8a7 	b.w	8005880 <__retarget_lock_acquire_recursive>
 8005732:	bf00      	nop
 8005734:	2000048f 	.word	0x2000048f

08005738 <__sinit_lock_release>:
 8005738:	4801      	ldr	r0, [pc, #4]	; (8005740 <__sinit_lock_release+0x8>)
 800573a:	f000 b8a2 	b.w	8005882 <__retarget_lock_release_recursive>
 800573e:	bf00      	nop
 8005740:	2000048f 	.word	0x2000048f

08005744 <__sinit>:
 8005744:	b510      	push	{r4, lr}
 8005746:	4604      	mov	r4, r0
 8005748:	f7ff fff0 	bl	800572c <__sinit_lock_acquire>
 800574c:	69a3      	ldr	r3, [r4, #24]
 800574e:	b11b      	cbz	r3, 8005758 <__sinit+0x14>
 8005750:	e8bd 4010 	ldmia.w	sp!, {r4, lr}
 8005754:	f7ff bff0 	b.w	8005738 <__sinit_lock_release>
 8005758:	e9c4 3312 	strd	r3, r3, [r4, #72]	; 0x48
 800575c:	6523      	str	r3, [r4, #80]	; 0x50
 800575e:	4b13      	ldr	r3, [pc, #76]	; (80057ac <__sinit+0x68>)
 8005760:	4a13      	ldr	r2, [pc, #76]	; (80057b0 <__sinit+0x6c>)
 8005762:	681b      	ldr	r3, [r3, #0]
 8005764:	62a2      	str	r2, [r4, #40]	; 0x28
 8005766:	42a3      	cmp	r3, r4
 8005768:	bf04      	itt	eq
 800576a:	2301      	moveq	r3, #1
 800576c:	61a3      	streq	r3, [r4, #24]
 800576e:	4620      	mov	r0, r4
 8005770:	f000 f820 	bl	80057b4 <__sfp>
 8005774:	6060      	str	r0, [r4, #4]
 8005776:	4620      	mov	r0, r4
 8005778:	f000 f81c 	bl	80057b4 <__sfp>
 800577c:	60a0      	str	r0, [r4, #8]
 800577e:	4620      	mov	r0, r4
 8005780:	f000 f818 	bl	80057b4 <__sfp>
 8005784:	2200      	movs	r2, #0
 8005786:	60e0      	str	r0, [r4, #12]
 8005788:	2104      	movs	r1, #4
 800578a:	6860      	ldr	r0, [r4, #4]
 800578c:	f7ff ff82 	bl	8005694 <std>
 8005790:	68a0      	ldr	r0, [r4, #8]
 8005792:	2201      	movs	r2, #1
 8005794:	2109      	movs	r1, #9
 8005796:	f7ff ff7d 	bl	8005694 <std>
 800579a:	68e0      	ldr	r0, [r4, #12]
 800579c:	2202      	movs	r2, #2
 800579e:	2112      	movs	r1, #18
 80057a0:	f7ff ff78 	bl	8005694 <std>
 80057a4:	2301      	movs	r3, #1
 80057a6:	61a3      	str	r3, [r4, #24]
 80057a8:	e7d2      	b.n	8005750 <__sinit+0xc>
 80057aa:	bf00      	nop
 80057ac:	08005bd0 	.word	0x08005bd0
 80057b0:	080056dd 	.word	0x080056dd

080057b4 <__sfp>:
 80057b4:	b5f8      	push	{r3, r4, r5, r6, r7, lr}
 80057b6:	4607      	mov	r7, r0
 80057b8:	f7ff ffac 	bl	8005714 <__sfp_lock_acquire>
 80057bc:	4b1e      	ldr	r3, [pc, #120]	; (8005838 <__sfp+0x84>)
 80057be:	681e      	ldr	r6, [r3, #0]
 80057c0:	69b3      	ldr	r3, [r6, #24]
 80057c2:	b913      	cbnz	r3, 80057ca <__sfp+0x16>
 80057c4:	4630      	mov	r0, r6
 80057c6:	f7ff ffbd 	bl	8005744 <__sinit>
 80057ca:	3648      	adds	r6, #72	; 0x48
 80057cc:	e9d6 3401 	ldrd	r3, r4, [r6, #4]
 80057d0:	3b01      	subs	r3, #1
 80057d2:	d503      	bpl.n	80057dc <__sfp+0x28>
 80057d4:	6833      	ldr	r3, [r6, #0]
 80057d6:	b30b      	cbz	r3, 800581c <__sfp+0x68>
 80057d8:	6836      	ldr	r6, [r6, #0]
 80057da:	e7f7      	b.n	80057cc <__sfp+0x18>
 80057dc:	f9b4 500c 	ldrsh.w	r5, [r4, #12]
 80057e0:	b9d5      	cbnz	r5, 8005818 <__sfp+0x64>
 80057e2:	4b16      	ldr	r3, [pc, #88]	; (800583c <__sfp+0x88>)
 80057e4:	60e3      	str	r3, [r4, #12]
 80057e6:	f104 0058 	add.w	r0, r4, #88	; 0x58
 80057ea:	6665      	str	r5, [r4, #100]	; 0x64
 80057ec:	f000 f847 	bl	800587e <__retarget_lock_init_recursive>
 80057f0:	f7ff ff96 	bl	8005720 <__sfp_lock_release>
 80057f4:	e9c4 5501 	strd	r5, r5, [r4, #4]
 80057f8:	e9c4 5504 	strd	r5, r5, [r4, #16]
 80057fc:	6025      	str	r5, [r4, #0]
 80057fe:	61a5      	str	r5, [r4, #24]
 8005800:	2208      	movs	r2, #8
 8005802:	4629      	mov	r1, r5
 8005804:	f104 005c 	add.w	r0, r4, #92	; 0x5c
 8005808:	f7fd fafa 	bl	8002e00 <memset>
 800580c:	e9c4 550d 	strd	r5, r5, [r4, #52]	; 0x34
 8005810:	e9c4 5512 	strd	r5, r5, [r4, #72]	; 0x48
 8005814:	4620      	mov	r0, r4
 8005816:	bdf8      	pop	{r3, r4, r5, r6, r7, pc}
 8005818:	3468      	adds	r4, #104	; 0x68
 800581a:	e7d9      	b.n	80057d0 <__sfp+0x1c>
 800581c:	2104      	movs	r1, #4
 800581e:	4638      	mov	r0, r7
 8005820:	f7ff ff62 	bl	80056e8 <__sfmoreglue>
 8005824:	4604      	mov	r4, r0
 8005826:	6030      	str	r0, [r6, #0]
 8005828:	2800      	cmp	r0, #0
 800582a:	d1d5      	bne.n	80057d8 <__sfp+0x24>
 800582c:	f7ff ff78 	bl	8005720 <__sfp_lock_release>
 8005830:	230c      	movs	r3, #12
 8005832:	603b      	str	r3, [r7, #0]
 8005834:	e7ee      	b.n	8005814 <__sfp+0x60>
 8005836:	bf00      	nop
 8005838:	08005bd0 	.word	0x08005bd0
 800583c:	ffff0001 	.word	0xffff0001

08005840 <_fwalk_reent>:
 8005840:	e92d 43f8 	stmdb	sp!, {r3, r4, r5, r6, r7, r8, r9, lr}
 8005844:	4606      	mov	r6, r0
 8005846:	4688      	mov	r8, r1
 8005848:	f100 0448 	add.w	r4, r0, #72	; 0x48
 800584c:	2700      	movs	r7, #0
 800584e:	e9d4 9501 	ldrd	r9, r5, [r4, #4]
 8005852:	f1b9 0901 	subs.w	r9, r9, #1
 8005856:	d505      	bpl.n	8005864 <_fwalk_reent+0x24>
 8005858:	6824      	ldr	r4, [r4, #0]
 800585a:	2c00      	cmp	r4, #0
 800585c:	d1f7      	bne.n	800584e <_fwalk_reent+0xe>
 800585e:	4638      	mov	r0, r7
 8005860:	e8bd 83f8 	ldmia.w	sp!, {r3, r4, r5, r6, r7, r8, r9, pc}
 8005864:	89ab      	ldrh	r3, [r5, #12]
 8005866:	2b01      	cmp	r3, #1
 8005868:	d907      	bls.n	800587a <_fwalk_reent+0x3a>
 800586a:	f9b5 300e 	ldrsh.w	r3, [r5, #14]
 800586e:	3301      	adds	r3, #1
 8005870:	d003      	beq.n	800587a <_fwalk_reent+0x3a>
 8005872:	4629      	mov	r1, r5
 8005874:	4630      	mov	r0, r6
 8005876:	47c0      	blx	r8
 8005878:	4307      	orrs	r7, r0
 800587a:	3568      	adds	r5, #104	; 0x68
 800587c:	e7e9      	b.n	8005852 <_fwalk_reent+0x12>

0800587e <__retarget_lock_init_recursive>:
 800587e:	4770      	bx	lr

08005880 <__retarget_lock_acquire_recursive>:
 8005880:	4770      	bx	lr

08005882 <__retarget_lock_release_recursive>:
 8005882:	4770      	bx	lr

08005884 <__swhatbuf_r>:
 8005884:	b570      	push	{r4, r5, r6, lr}
 8005886:	460e      	mov	r6, r1
 8005888:	f9b1 100e 	ldrsh.w	r1, [r1, #14]
 800588c:	2900      	cmp	r1, #0
 800588e:	b096      	sub	sp, #88	; 0x58
 8005890:	4614      	mov	r4, r2
 8005892:	461d      	mov	r5, r3
 8005894:	da07      	bge.n	80058a6 <__swhatbuf_r+0x22>
 8005896:	2300      	movs	r3, #0
 8005898:	602b      	str	r3, [r5, #0]
 800589a:	89b3      	ldrh	r3, [r6, #12]
 800589c:	061a      	lsls	r2, r3, #24
 800589e:	d410      	bmi.n	80058c2 <__swhatbuf_r+0x3e>
 80058a0:	f44f 6380 	mov.w	r3, #1024	; 0x400
 80058a4:	e00e      	b.n	80058c4 <__swhatbuf_r+0x40>
 80058a6:	466a      	mov	r2, sp
 80058a8:	f000 f902 	bl	8005ab0 <_fstat_r>
 80058ac:	2800      	cmp	r0, #0
 80058ae:	dbf2      	blt.n	8005896 <__swhatbuf_r+0x12>
 80058b0:	9a01      	ldr	r2, [sp, #4]
 80058b2:	f402 4270 	and.w	r2, r2, #61440	; 0xf000
 80058b6:	f5a2 5300 	sub.w	r3, r2, #8192	; 0x2000
 80058ba:	425a      	negs	r2, r3
 80058bc:	415a      	adcs	r2, r3
 80058be:	602a      	str	r2, [r5, #0]
 80058c0:	e7ee      	b.n	80058a0 <__swhatbuf_r+0x1c>
 80058c2:	2340      	movs	r3, #64	; 0x40
 80058c4:	2000      	movs	r0, #0
 80058c6:	6023      	str	r3, [r4, #0]
 80058c8:	b016      	add	sp, #88	; 0x58
 80058ca:	bd70      	pop	{r4, r5, r6, pc}

080058cc <__smakebuf_r>:
 80058cc:	898b      	ldrh	r3, [r1, #12]
 80058ce:	b573      	push	{r0, r1, r4, r5, r6, lr}
 80058d0:	079d      	lsls	r5, r3, #30
 80058d2:	4606      	mov	r6, r0
 80058d4:	460c      	mov	r4, r1
 80058d6:	d507      	bpl.n	80058e8 <__smakebuf_r+0x1c>
 80058d8:	f104 0347 	add.w	r3, r4, #71	; 0x47
 80058dc:	6023      	str	r3, [r4, #0]
 80058de:	6123      	str	r3, [r4, #16]
 80058e0:	2301      	movs	r3, #1
 80058e2:	6163      	str	r3, [r4, #20]
 80058e4:	b002      	add	sp, #8
 80058e6:	bd70      	pop	{r4, r5, r6, pc}
 80058e8:	ab01      	add	r3, sp, #4
 80058ea:	466a      	mov	r2, sp
 80058ec:	f7ff ffca 	bl	8005884 <__swhatbuf_r>
 80058f0:	9900      	ldr	r1, [sp, #0]
 80058f2:	4605      	mov	r5, r0
 80058f4:	4630      	mov	r0, r6
 80058f6:	f7ff f987 	bl	8004c08 <_malloc_r>
 80058fa:	b948      	cbnz	r0, 8005910 <__smakebuf_r+0x44>
 80058fc:	f9b4 300c 	ldrsh.w	r3, [r4, #12]
 8005900:	059a      	lsls	r2, r3, #22
 8005902:	d4ef      	bmi.n	80058e4 <__smakebuf_r+0x18>
 8005904:	f023 0303 	bic.w	r3, r3, #3
 8005908:	f043 0302 	orr.w	r3, r3, #2
 800590c:	81a3      	strh	r3, [r4, #12]
 800590e:	e7e3      	b.n	80058d8 <__smakebuf_r+0xc>
 8005910:	4b0d      	ldr	r3, [pc, #52]	; (8005948 <__smakebuf_r+0x7c>)
 8005912:	62b3      	str	r3, [r6, #40]	; 0x28
 8005914:	89a3      	ldrh	r3, [r4, #12]
 8005916:	6020      	str	r0, [r4, #0]
 8005918:	f043 0380 	orr.w	r3, r3, #128	; 0x80
 800591c:	81a3      	strh	r3, [r4, #12]
 800591e:	9b00      	ldr	r3, [sp, #0]
 8005920:	6163      	str	r3, [r4, #20]
 8005922:	9b01      	ldr	r3, [sp, #4]
 8005924:	6120      	str	r0, [r4, #16]
 8005926:	b15b      	cbz	r3, 8005940 <__smakebuf_r+0x74>
 8005928:	f9b4 100e 	ldrsh.w	r1, [r4, #14]
 800592c:	4630      	mov	r0, r6
 800592e:	f000 f8d1 	bl	8005ad4 <_isatty_r>
 8005932:	b128      	cbz	r0, 8005940 <__smakebuf_r+0x74>
 8005934:	89a3      	ldrh	r3, [r4, #12]
 8005936:	f023 0303 	bic.w	r3, r3, #3
 800593a:	f043 0301 	orr.w	r3, r3, #1
 800593e:	81a3      	strh	r3, [r4, #12]
 8005940:	89a0      	ldrh	r0, [r4, #12]
 8005942:	4305      	orrs	r5, r0
 8005944:	81a5      	strh	r5, [r4, #12]
 8005946:	e7cd      	b.n	80058e4 <__smakebuf_r+0x18>
 8005948:	080056dd 	.word	0x080056dd

0800594c <_malloc_usable_size_r>:
 800594c:	f851 3c04 	ldr.w	r3, [r1, #-4]
 8005950:	1f18      	subs	r0, r3, #4
 8005952:	2b00      	cmp	r3, #0
 8005954:	bfbc      	itt	lt
 8005956:	580b      	ldrlt	r3, [r1, r0]
 8005958:	18c0      	addlt	r0, r0, r3
 800595a:	4770      	bx	lr

0800595c <_raise_r>:
 800595c:	291f      	cmp	r1, #31
 800595e:	b538      	push	{r3, r4, r5, lr}
 8005960:	4604      	mov	r4, r0
 8005962:	460d      	mov	r5, r1
 8005964:	d904      	bls.n	8005970 <_raise_r+0x14>
 8005966:	2316      	movs	r3, #22
 8005968:	6003      	str	r3, [r0, #0]
 800596a:	f04f 30ff 	mov.w	r0, #4294967295
 800596e:	bd38      	pop	{r3, r4, r5, pc}
 8005970:	6c42      	ldr	r2, [r0, #68]	; 0x44
 8005972:	b112      	cbz	r2, 800597a <_raise_r+0x1e>
 8005974:	f852 3021 	ldr.w	r3, [r2, r1, lsl #2]
 8005978:	b94b      	cbnz	r3, 800598e <_raise_r+0x32>
 800597a:	4620      	mov	r0, r4
 800597c:	f000 f830 	bl	80059e0 <_getpid_r>
 8005980:	462a      	mov	r2, r5
 8005982:	4601      	mov	r1, r0
 8005984:	4620      	mov	r0, r4
 8005986:	e8bd 4038 	ldmia.w	sp!, {r3, r4, r5, lr}
 800598a:	f000 b817 	b.w	80059bc <_kill_r>
 800598e:	2b01      	cmp	r3, #1
 8005990:	d00a      	beq.n	80059a8 <_raise_r+0x4c>
 8005992:	1c59      	adds	r1, r3, #1
 8005994:	d103      	bne.n	800599e <_raise_r+0x42>
 8005996:	2316      	movs	r3, #22
 8005998:	6003      	str	r3, [r0, #0]
 800599a:	2001      	movs	r0, #1
 800599c:	e7e7      	b.n	800596e <_raise_r+0x12>
 800599e:	2400      	movs	r4, #0
 80059a0:	f842 4025 	str.w	r4, [r2, r5, lsl #2]
 80059a4:	4628      	mov	r0, r5
 80059a6:	4798      	blx	r3
 80059a8:	2000      	movs	r0, #0
 80059aa:	e7e0      	b.n	800596e <_raise_r+0x12>

080059ac <raise>:
 80059ac:	4b02      	ldr	r3, [pc, #8]	; (80059b8 <raise+0xc>)
 80059ae:	4601      	mov	r1, r0
 80059b0:	6818      	ldr	r0, [r3, #0]
 80059b2:	f7ff bfd3 	b.w	800595c <_raise_r>
 80059b6:	bf00      	nop
 80059b8:	2000000c 	.word	0x2000000c

080059bc <_kill_r>:
 80059bc:	b538      	push	{r3, r4, r5, lr}
 80059be:	4d07      	ldr	r5, [pc, #28]	; (80059dc <_kill_r+0x20>)
 80059c0:	2300      	movs	r3, #0
 80059c2:	4604      	mov	r4, r0
 80059c4:	4608      	mov	r0, r1
 80059c6:	4611      	mov	r1, r2
 80059c8:	602b      	str	r3, [r5, #0]
 80059ca:	f7fb ffd3 	bl	8001974 <_kill>
 80059ce:	1c43      	adds	r3, r0, #1
 80059d0:	d102      	bne.n	80059d8 <_kill_r+0x1c>
 80059d2:	682b      	ldr	r3, [r5, #0]
 80059d4:	b103      	cbz	r3, 80059d8 <_kill_r+0x1c>
 80059d6:	6023      	str	r3, [r4, #0]
 80059d8:	bd38      	pop	{r3, r4, r5, pc}
 80059da:	bf00      	nop
 80059dc:	20000488 	.word	0x20000488

080059e0 <_getpid_r>:
 80059e0:	f7fb bfc6 	b.w	8001970 <_getpid>

080059e4 <__sread>:
 80059e4:	b510      	push	{r4, lr}
 80059e6:	460c      	mov	r4, r1
 80059e8:	f9b1 100e 	ldrsh.w	r1, [r1, #14]
 80059ec:	f000 f894 	bl	8005b18 <_read_r>
 80059f0:	2800      	cmp	r0, #0
 80059f2:	bfab      	itete	ge
 80059f4:	6d63      	ldrge	r3, [r4, #84]	; 0x54
 80059f6:	89a3      	ldrhlt	r3, [r4, #12]
 80059f8:	181b      	addge	r3, r3, r0
 80059fa:	f423 5380 	biclt.w	r3, r3, #4096	; 0x1000
 80059fe:	bfac      	ite	ge
 8005a00:	6563      	strge	r3, [r4, #84]	; 0x54
 8005a02:	81a3      	strhlt	r3, [r4, #12]
 8005a04:	bd10      	pop	{r4, pc}

08005a06 <__swrite>:
 8005a06:	e92d 41f0 	stmdb	sp!, {r4, r5, r6, r7, r8, lr}
 8005a0a:	461f      	mov	r7, r3
 8005a0c:	898b      	ldrh	r3, [r1, #12]
 8005a0e:	05db      	lsls	r3, r3, #23
 8005a10:	4605      	mov	r5, r0
 8005a12:	460c      	mov	r4, r1
 8005a14:	4616      	mov	r6, r2
 8005a16:	d505      	bpl.n	8005a24 <__swrite+0x1e>
 8005a18:	f9b1 100e 	ldrsh.w	r1, [r1, #14]
 8005a1c:	2302      	movs	r3, #2
 8005a1e:	2200      	movs	r2, #0
 8005a20:	f000 f868 	bl	8005af4 <_lseek_r>
 8005a24:	89a3      	ldrh	r3, [r4, #12]
 8005a26:	f9b4 100e 	ldrsh.w	r1, [r4, #14]
 8005a2a:	f423 5380 	bic.w	r3, r3, #4096	; 0x1000
 8005a2e:	81a3      	strh	r3, [r4, #12]
 8005a30:	4632      	mov	r2, r6
 8005a32:	463b      	mov	r3, r7
 8005a34:	4628      	mov	r0, r5
 8005a36:	e8bd 41f0 	ldmia.w	sp!, {r4, r5, r6, r7, r8, lr}
 8005a3a:	f000 b817 	b.w	8005a6c <_write_r>

08005a3e <__sseek>:
 8005a3e:	b510      	push	{r4, lr}
 8005a40:	460c      	mov	r4, r1
 8005a42:	f9b1 100e 	ldrsh.w	r1, [r1, #14]
 8005a46:	f000 f855 	bl	8005af4 <_lseek_r>
 8005a4a:	1c43      	adds	r3, r0, #1
 8005a4c:	89a3      	ldrh	r3, [r4, #12]
 8005a4e:	bf15      	itete	ne
 8005a50:	6560      	strne	r0, [r4, #84]	; 0x54
 8005a52:	f423 5380 	biceq.w	r3, r3, #4096	; 0x1000
 8005a56:	f443 5380 	orrne.w	r3, r3, #4096	; 0x1000
 8005a5a:	81a3      	strheq	r3, [r4, #12]
 8005a5c:	bf18      	it	ne
 8005a5e:	81a3      	strhne	r3, [r4, #12]
 8005a60:	bd10      	pop	{r4, pc}

08005a62 <__sclose>:
 8005a62:	f9b1 100e 	ldrsh.w	r1, [r1, #14]
 8005a66:	f000 b813 	b.w	8005a90 <_close_r>
	...

08005a6c <_write_r>:
 8005a6c:	b538      	push	{r3, r4, r5, lr}
 8005a6e:	4d07      	ldr	r5, [pc, #28]	; (8005a8c <_write_r+0x20>)
 8005a70:	4604      	mov	r4, r0
 8005a72:	4608      	mov	r0, r1
 8005a74:	4611      	mov	r1, r2
 8005a76:	2200      	movs	r2, #0
 8005a78:	602a      	str	r2, [r5, #0]
 8005a7a:	461a      	mov	r2, r3
 8005a7c:	f7fb ff95 	bl	80019aa <_write>
 8005a80:	1c43      	adds	r3, r0, #1
 8005a82:	d102      	bne.n	8005a8a <_write_r+0x1e>
 8005a84:	682b      	ldr	r3, [r5, #0]
 8005a86:	b103      	cbz	r3, 8005a8a <_write_r+0x1e>
 8005a88:	6023      	str	r3, [r4, #0]
 8005a8a:	bd38      	pop	{r3, r4, r5, pc}
 8005a8c:	20000488 	.word	0x20000488

08005a90 <_close_r>:
 8005a90:	b538      	push	{r3, r4, r5, lr}
 8005a92:	4d06      	ldr	r5, [pc, #24]	; (8005aac <_close_r+0x1c>)
 8005a94:	2300      	movs	r3, #0
 8005a96:	4604      	mov	r4, r0
 8005a98:	4608      	mov	r0, r1
 8005a9a:	602b      	str	r3, [r5, #0]
 8005a9c:	f7fb ff92 	bl	80019c4 <_close>
 8005aa0:	1c43      	adds	r3, r0, #1
 8005aa2:	d102      	bne.n	8005aaa <_close_r+0x1a>
 8005aa4:	682b      	ldr	r3, [r5, #0]
 8005aa6:	b103      	cbz	r3, 8005aaa <_close_r+0x1a>
 8005aa8:	6023      	str	r3, [r4, #0]
 8005aaa:	bd38      	pop	{r3, r4, r5, pc}
 8005aac:	20000488 	.word	0x20000488

08005ab0 <_fstat_r>:
 8005ab0:	b538      	push	{r3, r4, r5, lr}
 8005ab2:	4d07      	ldr	r5, [pc, #28]	; (8005ad0 <_fstat_r+0x20>)
 8005ab4:	2300      	movs	r3, #0
 8005ab6:	4604      	mov	r4, r0
 8005ab8:	4608      	mov	r0, r1
 8005aba:	4611      	mov	r1, r2
 8005abc:	602b      	str	r3, [r5, #0]
 8005abe:	f7fb ff84 	bl	80019ca <_fstat>
 8005ac2:	1c43      	adds	r3, r0, #1
 8005ac4:	d102      	bne.n	8005acc <_fstat_r+0x1c>
 8005ac6:	682b      	ldr	r3, [r5, #0]
 8005ac8:	b103      	cbz	r3, 8005acc <_fstat_r+0x1c>
 8005aca:	6023      	str	r3, [r4, #0]
 8005acc:	bd38      	pop	{r3, r4, r5, pc}
 8005ace:	bf00      	nop
 8005ad0:	20000488 	.word	0x20000488

08005ad4 <_isatty_r>:
 8005ad4:	b538      	push	{r3, r4, r5, lr}
 8005ad6:	4d06      	ldr	r5, [pc, #24]	; (8005af0 <_isatty_r+0x1c>)
 8005ad8:	2300      	movs	r3, #0
 8005ada:	4604      	mov	r4, r0
 8005adc:	4608      	mov	r0, r1
 8005ade:	602b      	str	r3, [r5, #0]
 8005ae0:	f7fb ff78 	bl	80019d4 <_isatty>
 8005ae4:	1c43      	adds	r3, r0, #1
 8005ae6:	d102      	bne.n	8005aee <_isatty_r+0x1a>
 8005ae8:	682b      	ldr	r3, [r5, #0]
 8005aea:	b103      	cbz	r3, 8005aee <_isatty_r+0x1a>
 8005aec:	6023      	str	r3, [r4, #0]
 8005aee:	bd38      	pop	{r3, r4, r5, pc}
 8005af0:	20000488 	.word	0x20000488

08005af4 <_lseek_r>:
 8005af4:	b538      	push	{r3, r4, r5, lr}
 8005af6:	4d07      	ldr	r5, [pc, #28]	; (8005b14 <_lseek_r+0x20>)
 8005af8:	4604      	mov	r4, r0
 8005afa:	4608      	mov	r0, r1
 8005afc:	4611      	mov	r1, r2
 8005afe:	2200      	movs	r2, #0
 8005b00:	602a      	str	r2, [r5, #0]
 8005b02:	461a      	mov	r2, r3
 8005b04:	f7fb ff68 	bl	80019d8 <_lseek>
 8005b08:	1c43      	adds	r3, r0, #1
 8005b0a:	d102      	bne.n	8005b12 <_lseek_r+0x1e>
 8005b0c:	682b      	ldr	r3, [r5, #0]
 8005b0e:	b103      	cbz	r3, 8005b12 <_lseek_r+0x1e>
 8005b10:	6023      	str	r3, [r4, #0]
 8005b12:	bd38      	pop	{r3, r4, r5, pc}
 8005b14:	20000488 	.word	0x20000488

08005b18 <_read_r>:
 8005b18:	b538      	push	{r3, r4, r5, lr}
 8005b1a:	4d07      	ldr	r5, [pc, #28]	; (8005b38 <_read_r+0x20>)
 8005b1c:	4604      	mov	r4, r0
 8005b1e:	4608      	mov	r0, r1
 8005b20:	4611      	mov	r1, r2
 8005b22:	2200      	movs	r2, #0
 8005b24:	602a      	str	r2, [r5, #0]
 8005b26:	461a      	mov	r2, r3
 8005b28:	f7fb ff32 	bl	8001990 <_read>
 8005b2c:	1c43      	adds	r3, r0, #1
 8005b2e:	d102      	bne.n	8005b36 <_read_r+0x1e>
 8005b30:	682b      	ldr	r3, [r5, #0]
 8005b32:	b103      	cbz	r3, 8005b36 <_read_r+0x1e>
 8005b34:	6023      	str	r3, [r4, #0]
 8005b36:	bd38      	pop	{r3, r4, r5, pc}
 8005b38:	20000488 	.word	0x20000488

08005b3c <_init>:
 8005b3c:	b5f8      	push	{r3, r4, r5, r6, r7, lr}
 8005b3e:	bf00      	nop
 8005b40:	bcf8      	pop	{r3, r4, r5, r6, r7}
 8005b42:	bc08      	pop	{r3}
 8005b44:	469e      	mov	lr, r3
 8005b46:	4770      	bx	lr

08005b48 <_fini>:
 8005b48:	b5f8      	push	{r3, r4, r5, r6, r7, lr}
 8005b4a:	bf00      	nop
 8005b4c:	bcf8      	pop	{r3, r4, r5, r6, r7}
 8005b4e:	bc08      	pop	{r3}
 8005b50:	469e      	mov	lr, r3
 8005b52:	4770      	bx	lr
